(dp1
S'output'
p2
S"<type 'exceptions.AttributeError'> 'list' object has no attribute 'iteritems'"
p3
sS'layer'
p4
S'/Users/admin/web2py/applications/editex/controllers/compose.py'
p5
sS'code'
p6
S'import datetime\n\nact_flag = 0\n\ndef auth_button():\n    return dict()\n\ndef index():\n    rows = db().select(db.sect.ALL,orderby=\'section_id\')\n    print \'leaving index function with \', len(rows)\n    return dict(rows=rows)\n\ndef view_problems():\n    if len(request.args)>0:\n        session.active_sid = request.args(0)\n        if not session.active_sid:\n            redirect(\'compound\',\'index\')\n    rows = db(db.segment.section_id==session.active_sid).select()\n    return dict(rows=rows)\n\ndef mytex():\n    return dict()\n\ndef append_tex():\n    #session.seg_cat = \'tex\'\n    #if len(request.args)>0:\n    parent_id = request.args(0,cast=int)\n    form=SQLFORM(db.part,request.args(0,cast=int))\n    form.vars.parent_id = request.args(0,int)\n    """  else:\n        #seg2edit = 0\n        form=SQLFORM(db.segment)\n        form.vars.parent_id=request.args(0)\n    try:\n        meta = db(db.meta.id==session.cur_meta_id).select().first()\n        segs = db(db.segment.meta_id==session.cur_meta_id).select()\n    except Exception, e:\n        response.flash="error: %s" % e\n        redirect(\'edit\',\'index\')   """\n    if form.process().accepted:\n        print "TeX form accepted"\n        redirect(URL(\'compose\',\'view_problems\'),client_side=True)\n    else:\n        print \'error\'\n        response.flash=\'failure to insert record\'\n    return dict(form=form)  #, meta=meta,segs=segs,seg2edit=seg2edit)\n\n@auth.requires_login()\ndef commit_parts():\n    rows = db((db.parts.parent_id==request.args(0))&(db.parts.auth_id==auth.user_id)).select()\n    rows.update(terminal=True)\n    redirect(URL(\'compose\',\'view_problems\', args=form.vars.section_id),client_side=True)\n\n@auth.requires_login()\ndef append_txt():\n    print \'in append_txt\'\n    if not request.args and not session.pnum:\n        response.flash=\'Error: request args omitted\'\n        redirect(\'compose\',\'index\')\n    form = SQLFORM(db.part,formstyle=\'divs\',fields=[\'body\',\'image\'],hidden=[\'parent_id\',\'section_id\'],labels={\'body\':\'\'})\n    if len(request.args)>0:\n        form.vars.parent_id=request.args(0)\n    else:\n        form.vars.parent_id=session.pnum\n    if form.process().accepted:\n        response.flash=\'record added\'\n        redirect(URL(\'compose\',\'view_problems\', args=form.vars.section_id),client_side=True)\n    return dict(form=form)\n\n@auth.requires_login()\ndef append_tex():\n    print \'in append_tex\'\n    if not request.args and not session.pnum:\n        response.flash=\'Error: request args omitted\'\n    form = SQLFORM(db.part,formstyle=\'divs\',labels={\'body\':""})\n    form.vars.id=request.args(0)\n    if form.process().accepted:\n        response.flash=\'record added\'\n    return dict(form=form)\n\ndef XXnew_section():\n    form=SQLFORM(db.sect)\n    if form.process().accepted:\n        redirect(URL(\'compose\',\'section_index\',args=form.vars.id))\n    return dict(form=form)\n\ndef append_problem():\n    return "jQuery(\'#problems\').append(%s);" % repr(request.vars.body)\n\n""" WRITE """\n@auth.requires_login()\ndef add_problem():\n    print \'entered add_problem\'\n    body=request.vars.body\n    print "body: ",body\n    bid = db.segment.insert(body=body)\n    print "problem inserted"\n    return "jquery(\'#problems\').append(%s);" % body\n\n@auth.requires_login()\ndef new_problem():\n    body=request.vars.body\n    form = SQLFORM(db.segment,fields=[\'body\'],formstyle=\'divs\',labels={\'body\':""})\n    if form.process().accepted:\n        db(db.segment.id==form.vars.id).update(segnum=form.vars.id)\n        response.flash=form.vars.segment_body\n    return dict(form=form)\n\n""" READ """\n@auth.requires_login()\ndef show_problem():\n    session.cur_owner = ""\n    rows = db(db.segment.segnum==request.args(0)).select()\n    return dict(rows=rows)\n\n@cache.action()\ndef download():\n    return response.download(request, db)\n\n""" WORKING  """\n\ndef form():\n    return dict()\n\n@cache.action()\ndef textbar():\n    rows  = db(db.symchar.act==True).select(orderby=\'grp\')\n    return dict(rows=rows)\n\n@cache.action()\ndef XXtextbar0():\n    symbols = db(db.symchar.act==True).select(orderby=\'grp\', groupby=\'grp\')\n    cur_group = None\n    bset = symbar=[]\n    for sym in symbols:\n        if not cur_group == sym.grp:\n            if cur_group:\n                bset.append("</fieldset>")\n            cur_group = sym.grp\n            bset.append("<fieldset id = " + sym.grp + ">")\n            bset.append("<span class=\'btn\' id="+sym.alt+" onclick="+sym.func+">"+sym.chr+"</span>")\n        else:\n            bset.append("<span class=\'btn\' id="+sym.alt+" onclick="+sym.func+">"+sym.chr+"</span>")\n        bset.append("</fieldset>")\n        symbar.append(bset)\n        bset=[]\n    return DIV(symbar)\n\ndef edit_symbols():\n    grid = SQLFORM.smartgrid(db.symchar)\n    return dict(grid=grid)\n\ndef sym_insert():\n    sets=dict(greek=[\'\xce\xb1\',\'\xce\xb2\',\'\xce\xb3\',\'\xce\xb4\',\'\xce\xb5\',\'\xce\xb6\',\'\xce\xb7\',\'\xce\xb8\',\'\xce\xb9\',\'\xce\xba\',\'\xce\xbb\',\'\xce\xbc\',\'\xce\xbd\',\'\xce\xbe\',\'\xce\xbf\',\'\xcf\x80\',\'\xcf\x81\',\'\xcf\x82\',\'\xcf\x84\',\'\xcf\x85\',\'\xcf\x86\',\'\xcf\x87\',\'\xcf\x88\',\'\xcf\x89\'],superscript=[\'\xe2\x81\xb0\',\'\xc2\xb9\',\'\xc2\xb2\',\'\xc2\xb3\',\'\xe2\x81\xb4\',\'\xe2\x81\xb5\',\'\xe2\x81\xb6\',\'\xe2\x81\xb7\',\'\xe2\x81\xb8\',\'\xe2\x81\xb9\',\'\xe2\x81\xba\',\'\xe2\x81\xbb\',\'\xe2\x81\xbc\',\'\xe2\x81\xbd\',\'\xe2\x81\xbe\',\'\xe2\x81\xbf\',\'\xe2\x81\xb1\'],subscript=[\'\xe2\x82\x80\',\'\xe2\x82\x81\',\'\xe2\x82\x82\',\'\xe2\x82\x83\',\'\xe2\x82\x84\',\'\xe2\x82\x85\',\'\xe2\x82\x86\',\'\xe2\x82\x87\',\'\xe2\x82\x88\',\'\xe2\x82\x89\',\'\xe2\x82\x8a\',\'\xe2\x82\x8b\',\'\xe2\x82\x8c\',\'\xe2\x82\x8d\',\'\xe2\x82\x8e\',\'\xe2\x82\x90\',\'\xe2\x82\x91\',\'\',\'\xe1\xb5\xa2\',\'\xe2\xb1\xbc\',\'\',\'\xe2\x82\x92\',\'\',\'\xe1\xb5\xa3\',\'\xe1\xb5\xa4\',\'\xe1\xb5\xa5\',\'\xe2\x82\x93\',\'\xe2\x82\x94\'],roots=[\'\xe2\x88\x9a\',\'\xe2\x88\x9b\',\'\xe2\x88\x9c\'],numbers=[\'\xe2\x84\x95\',\'\xe2\x84\xa4\',\'\xe2\x84\x9a\',\'\xe2\x84\x9d\',\'\xe2\x84\x82\',\'\xe2\x88\x85\'],infinity=[\'\xe2\x88\x9e\',\' \xe2\xa7\x9c\',\'\xe2\xa7\x9d\',\'\xe2\xa7\x9e\'],multdiv=[\'\xc3\x97\',\'\xe2\x9c\x95\',\'\xe2\x9c\x96\',\'\xc3\xb7\',\'\xe2\x88\x92\',\'\xe2\x88\x95\',\'\xe2\x88\x97\',\'\xe2\x88\x98\',\'\xe2\x88\x99\',\'\xe2\x8b\x85\',\'\xe2\x8b\x86\'],circled=[\'\xe2\x8a\x95\',\'\xe2\x8a\x96\',\'\xe2\x8a\x97\',\'\xe2\x8a\x98\',\'\xe2\x8a\x99\',\'\xe2\x8a\x9a\',\'\xe2\x8a\x9b\',\'\xe2\x8a\x9c\',\'\xe2\x8a\x9d\'],squared=[\'\xe2\x8a\x9e\',\'\xe2\x8a\x9f\',\'\xe2\x8a\xa0\',\'\xe2\x8a\xa1\'],elementof=[\'\xe2\x88\x88\',\'\xe2\x88\x8b\',\'\xe2\x88\x89\',\'\xe2\x88\x8c\',\'\xe2\x8b\xb6\',\'\xe2\x8b\xbd\',\'\xe2\x8b\xb2\',\'\xe2\x8b\xba\',\'\xe2\x8b\xb3\',\'\xe2\x8b\xbb\',\'\xe2\x88\x8a\',\'\xe2\x88\x8d\',\'\xe2\x8b\xb7\',\'\xe2\x8b\xbe\',\'\xe2\x8b\xb4\',\'\xe2\x8b\xbc\',\'\xe2\x8b\xb5\',\'\xe2\x8b\xb8\',\'\xe2\x8b\xb9\',\'\xe2\xab\x99\',\'\xe2\x9f\x92\'],binary_rel=[\'\xe2\x8a\x82\',\'\xe2\x8a\x83\',\'\xe2\x8a\x86\',\'\xe2\x8a\x87\',\'\xe2\x8a\x88\',\'\xe2\x8a\x89\',\'\xe2\x8a\x8a\',\'\xe2\x8a\x8b\',\'\xe2\x8a\x84\',\'\xe2\x8a\x85\',\'\xe2\xab\x85\',\'\xe2\xab\x86\',\'\xe2\xab\x8b\',\'\xe2\xab\x8c\',\'\xe2\xab\x83\',\'\xe2\xab\x84\',\'\xe2\xab\x87\',\'\xe2\xab\x88\',\'\xe2\xab\x89\',\'\xe2\xab\x8a\',\'\xe2\x9f\x83\',\'\xe2\x9f\x84\',\'\xe2\xab\x8f\',\'\xe2\xab\x90\',\'\xe2\xab\x91\',\'\xe2\xab\x92\',\'\xe2\xab\x93\',\'\xe2\xab\x94\',\'\xe2\xab\x95\',\'\xe2\xab\x96\',\'\xe2\xab\x97\'],setops=[\'\xe2\xab\x98\',\'\xe2\x8b\x90\',\'\xe2\x8b\x91\',\'\xe2\x9f\x88\',\'\xe2\x9f\x89\',\'\xe2\x88\xaa\',\'\xe2\xa9\x81\',\'\xe2\xa9\x82\',\'\xe2\xa9\x85\',\'\xe2\xa9\x8c\',\'\xe2\xa9\x8f\',\'\xe2\xa9\x90\',\'\xe2\x88\xa9\',\'\xe2\xa9\x80\',\'\xe2\xa9\x83\',\'\xe2\xa9\x84\',\'\xe2\xa9\x8d\',\'\xe2\xa9\x8e\',\'\'],binops=[\'\xe2\x88\x96\',\'\xe2\xa9\x86\',\'\xe2\xa9\x87\',\'\xe2\xa9\x88\',\'\xe2\xa9\x89\',\'\xe2\xa9\x8a\',\'\xe2\xa9\x8b\',\'\xe2\xaa\xbd\',\'\xe2\xaa\xbe\',\'\xe2\xaa\xbf\',\'\xe2\xab\x80\',\'\xe2\xab\x81\',\'\xe2\xab\x82\',\'\xe2\x8b\x92\',\'\xe2\x8b\x93\'],n_ops=[\'\xe2\x8b\x82\',\'\xe2\x8b\x83\',\'\xe2\x8a\x8c\',\'\xe2\x8a\x8d\',\'\xe2\x8a\x8e\',\'\xe2\xa8\x83\',\'\xe2\xa8\x84\',\'\xe2\xa8\x85\',\'\xe2\xa8\x86\'],joins=[\'\xe2\xa8\x9d\',\'\xe2\x9f\x95\',\'\xe2\x9f\x96\',\'\xe2\x9f\x97\'],pre_succ=[\'\xe2\x89\xba\',\'\xe2\x89\xbb\',\'\xe2\x89\xbc\',\'\xe2\x89\xbd\',\'\xe2\x89\xbe\',\'\xe2\x89\xbf\',\'\xe2\x8a\x80\',\'\xe2\x8a\x81\',\'\xe2\x8b\x9e\',\'\xe2\x8b\x9f\',\'\xe2\x8b\xa0\',\'\xe2\x8b\xa1\',\'\xe2\x8b\xa8\',\'\xe2\x8b\xa9\',\'\xe2\xaa\xaf\',\'\xe2\xaa\xb0\',\'\xe2\xaa\xb1\',\'\xe2\xaa\xb2\',\'\xe2\xaa\xb3\',\'\xe2\xaa\xb4\',\'\xe2\xaa\xb5\',\'\xe2\xaa\xb6\',\'\xe2\xaa\xb7\',\'\xe2\xaa\xb8\',\'\xe2\xaa\xb9\',\'\xe2\xaa\xba\',\'\xe2\xaa\xbb\',\'\xe2\xaa\xbc\'],lt_gt=[\'<\',\'>\',\'\xe2\x89\xae\',\'\xe2\x89\xaf\',\'\xe2\x89\xa4\',\'\xe2\x89\xa5\',\'\xe2\x89\xb0\',\'\xe2\x89\xb1\',\'\xe2\xaa\x87\',\'\xe2\xaa\x88\',\'\xe2\x89\xa6\',\'\xe2\x89\xa7\',\'\xe2\x89\xa8\',\'\xe2\x89\xa9\'],equal_con=[\'\xe2\x89\x9d\',\'\xe2\x89\x9e\',\'\xe2\x89\x9f\',\'\xe2\x89\xa0\',\'\xe2\x88\xb9\',\'\xe2\x89\x8e\',\'\xe2\x89\x8f\',\'\xe2\xaa\xae\',\'\xe2\x89\x90\',\'\xe2\x89\x91\',\'\xe2\x89\x92\',\'\xe2\x89\x93\',\'\xe2\x89\x94\',\'\xe2\x89\x95\',\'\xe2\x89\x96\',\'\xe2\x89\x97\',\'\xe2\x89\x98\',\'\xe2\x89\x99\',\'\xe2\x89\x9a\',\'\xe2\x89\x9b\',\'\xe2\x89\x9c\',\'\xe2\xa9\xac\',\'\xe2\xa9\xad\',\'\xe2\xa9\xae\',\'\xe2\xa9\xb1\',\'\xe2\xa9\xb2\',\'\xe2\xa9\xa6\',\'\xe2\xa9\xb4\',\'\xe2\xa9\xb5\',\'\xe2\xa9\xb6\',\'\xe2\xa9\xb7\',\'\xe2\x89\xa1\',\'\xe2\x89\xa2\',\'\xe2\xa9\xa7\',\'\'],ident_eq=[\'\xe2\x89\x8d\',\'\xe2\x89\xad\',\'\xe2\x89\xa3\',\'\xe2\xa9\xb8\',\'\xe2\x89\x81\',\'\xe2\x89\x82\',\'\xe2\x89\x83\',\'\xe2\x89\x84\',\'\xe2\x8b\x8d\',\'\xe2\x89\x85\',\'\xe2\x89\x86\',\'\xe2\x89\x87\',\'\xe2\x89\x88\',\'\xe2\x89\x89\',\'\xe2\x89\x8a\',\'\xe2\x89\x8b\',\'\xe2\x89\x8c\',\'\xe2\xa9\xaf\',\'\xe2\xa9\xb0\'],misc_rel=[\'\xe2\x8a\x8f\',\'\xe2\x8a\x90\',\'\xe2\x8a\x91\',\'\xe2\x8a\x92\',\'\xe2\x8a\x93\',\'\xe2\x8a\x94\',\'\xe2\x8b\xa2\',\'\xe2\x8b\xa3\',\'\xe2\x8b\xa4\',\'\xe2\x8b\xa5\',\'\xe2\xab\xb4\',\'\xe2\xab\xb5\'],logic=[\'\xc2\xac\',\'\xe2\xab\xac\',\'\xe2\xab\xad\',\'\xe2\x8a\xa8\',\'\xe2\x8a\xad\',\'\xe2\x88\x80\',\'\xe2\x88\x81\',\'\xe2\x88\x83\',\'\xe2\x88\x84\',\'\xe2\x88\xb4\',\'\xe2\x88\xb5\',\'\xe2\x8a\xa6\',\'\xe2\x8a\xac\',\'\xe2\x8a\xa7\',\'\xe2\x8a\xa9\',\'\xe2\x8a\xae\',\'\xe2\x8a\xab\',\'\xe2\x8a\xaf\',\'\xe2\x8a\xaa\',\'\xe2\x8a\xb0\',\'\xe2\x8a\xb1\'],logic_binary=[\'\xe2\x88\xa7\',\'\xe2\x88\xa8\',\'\xe2\x8a\xbb\',\'\xe2\x8a\xbc\',\'\xe2\x8a\xbd\',\'\xe2\x8b\x8e\',\'\xe2\x8b\x8f\',\'\xe2\x9f\x91\',\'\xe2\x9f\x87\',\'\xe2\xa9\x91\',\'\xe2\xa9\x92\',\'\xe2\xa9\x93\',\'\xe2\xa9\x94\',\'\xe2\xa9\x95\',\'\xe2\xa9\x96\',\'\xe2\xa9\x97\',\'\xe2\xa9\x98\',\'\xe2\xa9\x99\',\'\xe2\xa9\x9a\',\'\xe2\xa9\x9b\',\'\xe2\xa9\x9c\',\'\xe2\xa9\x9d\',\'\xe2\xa9\x9e\',\'\xe2\xa9\x9f\',\'\xe2\xa9\xa0\',\'\xe2\xa9\xa2\',\'\xe2\xa9\xa3\',\'\xe2\xa8\x87\',\'\xe2\xa8\x88\'],logic_nary=[\'\xe2\x8b\x80\',\'\xe2\x8b\x81\'],misc_indics=[\'\xe2\x88\x8e\',\'\xc2\xb1\',\'\xe2\x88\x93\',\'\xe2\x8b\xae\',\'\xe2\x8b\xaf\',\'\xe2\x8b\xb0\',\'\xe2\x8b\xb1\'],ratio=[\'\xe2\x88\x9d\',\'\xe2\x88\xb6\',\'\xe2\x88\xb7\',\'\xe2\x88\xba\'],angles=[\'\xe2\xa6\x9c\',\'\xe2\x88\x9f\',\'\xe2\x8a\xbe\',\'\xe2\xa6\x9d\',\'\xe2\x8a\xbf\',\'\xe2\x88\xa0\',\'\xe2\x88\xa1\',\'\xe2\xa6\x9b\',\'\xe2\xa6\x9e\',\'\xe2\xa6\x9f\',\'\xe2\xa6\xa2\',\'\xe2\xa6\xa3\',\'\xe2\xa6\xa4\',\'\xe2\xa6\xa5\',\'\xe2\xa6\xa6\',\'\xe2\xa6\xa7\',\'\xe2\xa6\xa8\',\'\xe2\xa6\xa9\',\'\xe2\xa6\xaa\',\'\xe2\xa6\xab\',\'\xe2\xa6\xac\',\'\xe2\xa6\xad\',\'\xe2\xa6\xae\',\'\xe2\xa6\xaf\',\'\xe2\xa6\x93\',\'\xe2\xa6\x94\',\'\xe2\xa6\x95\',\'\xe2\xa6\x96\',\'\xe2\x9f\x80\'],misc_prod=[\'\xe2\x89\x80\',\'\xe2\xa8\xbf\',\'\xe2\xa8\xbc\',\'\xe2\xa8\xbd\',\'\xe2\xa7\xa2\',\'\xe2\x8b\x89\',\'\xe2\x8b\x8a\',\'\xe2\x8b\x8b\',\'\xe2\x8b\x8c\'],misc_nary=[\'\xe2\x88\x91\',\'\xe2\xa8\x8a\',\'\xe2\xa8\x81\',\'\xe2\xa8\x80\',\'\xe2\xa8\x82\',\'\xe2\x88\x8f\',\'\xe2\x88\x90\',\'\xe2\xa8\x89\'],single_arrows=[\'\xe2\x86\x90\',\'\xe2\x86\x92\',\'\xe2\x86\x91\',\'\xe2\x86\x93\',\'\xe2\x86\x94\',\'\xe2\x86\x95\',\'\xe2\x86\x96\',\'\xe2\x86\x97\',\'\xe2\x86\x98\',\'\xe2\x86\x99\',\'\xe2\x86\x9a\',\'\xe2\x86\x9b\',\'\xe2\x86\xae\',\'\xe2\x9f\xb5\',\'\xe2\x9f\xb6\',\'\xe2\x9f\xb7\'],double_arrows=[\'\xe2\x87\x90\',\'\xe2\x87\x92\',\'\xe2\x87\x91\',\'\xe2\x87\x93\',\'\xe2\x87\x94\',\'\xe2\x87\x95\',\'\xe2\x87\x96\',\'\xe2\x87\x97\',\'\xe2\x87\x98\',\'\xe2\x87\x99\',\'\xe2\x87\x8d\',\'\xe2\x87\x8f\',\'\xe2\x87\x8e\',\'\xe2\x9f\xb8\',\'\xe2\x9f\xb9\',\'\xe2\x9f\xba\'],misc_arrows=[\'\xe2\x87\x86\',\'\xe2\x87\x84\',\'\xe2\x87\x85\',\'\xe2\x87\xb5\',\'\xe2\x87\x88\',\'\xe2\x87\x8a\',\'\xe2\x87\x87\',\'\xe2\x87\x89\'],ascii_brackets=[\'\xe2\x9f\xa6\',\'\xe2\x9f\xa7\',\'\xe2\x9f\xa8\',\'\xe2\x9f\xa9\',\'\xe2\x9f\xaa\',\'\xe2\x9f\xab\',\'\xe2\x9f\xae\',\'\xe2\x9f\xaf\',\'\xe2\x9f\xac\',\'\xe2\x9f\xad\',\'\xe2\x8c\x88\',\'\xe2\x8c\x89\',\'\xe2\x8c\x8a\',\'\xe2\x8c\x8b\',\'\xe2\xa6\x87\',\'\xe2\xa6\x88\',\'\xe2\xa6\x89\',\'\xe2\xa6\x8a\'],full_brackets=[\'\xef\xbc\x88\',\'\xef\xbc\x89\',\'\xef\xbc\xbb\',\'\xef\xbc\xbd\',\'\xef\xbd\x9b\',\'\xef\xbd\x9d\',\'\xef\xbd\x9f\',\'\xef\xbd\xa0\'],math_brackets=[\'\xe2\x9f\xa6\',\'\xe2\x9f\xa7\',\'\xe2\x9f\xa8\',\'\xe2\x9f\xa9\',\'\xe2\x9f\xaa\',\'\xe2\x9f\xab\',\'\xe2\x9f\xae\',\'\xe2\x9f\xaf\',\'\xe2\x9f\xac\',\'\xe2\x9f\xad\',\'\xe2\x8c\x88\',\'\xe2\x8c\x89\',\'\xe2\x8c\x8a\',\'\xe2\x8c\x8b\',\'\xe2\xa6\x87\',\'\xe2\xa6\x88\',\'\xe2\xa6\x89\',\'\xe2\xa6\x8a\'])\n    i = 0\n    for key in sets:\n        cur_grp = key\n        for chr in sets[key]:\n            db.symchar.insert(grp=key,chr=chr)\n            i = i + 1\n    return dict(i=i)\nresponse._vars=response._caller(append_txt)\n'
p7
sS'snapshot'
p8
(dp9
S'exception'
p10
(dp11
S'__hash__'
p12
S"<method-wrapper '__hash__' of exceptions.AttributeError object>"
p13
sS'__setattr__'
p14
S"<method-wrapper '__setattr__' of exceptions.AttributeError object>"
p15
sS'__reduce_ex__'
p16
S'<built-in method __reduce_ex__ of exceptions.AttributeError object>'
p17
sS'__getslice__'
p18
S"<method-wrapper '__getslice__' of exceptions.AttributeError object>"
p19
sS'__getitem__'
p20
S"<method-wrapper '__getitem__' of exceptions.AttributeError object>"
p21
sS'__setstate__'
p22
S'<built-in method __setstate__ of exceptions.AttributeError object>'
p23
sS'args'
p24
S'("\'list\' object has no attribute \'iteritems\'",)'
p25
sS'__reduce__'
p26
S'<built-in method __reduce__ of exceptions.AttributeError object>'
p27
sS'__str__'
p28
S"<method-wrapper '__str__' of exceptions.AttributeError object>"
p29
sS'__format__'
p30
S'<built-in method __format__ of exceptions.AttributeError object>'
p31
sS'__getattribute__'
p32
S"<method-wrapper '__getattribute__' of exceptions.AttributeError object>"
p33
sS'__class__'
p34
S"<type 'exceptions.AttributeError'>"
p35
sS'__unicode__'
p36
S'<built-in method __unicode__ of exceptions.AttributeError object>'
p37
sS'__delattr__'
p38
S"<method-wrapper '__delattr__' of exceptions.AttributeError object>"
p39
sS'__subclasshook__'
p40
S'<built-in method __subclasshook__ of type object>'
p41
sS'__repr__'
p42
S"<method-wrapper '__repr__' of exceptions.AttributeError object>"
p43
sS'__dict__'
p44
S'{}'
p45
sS'__sizeof__'
p46
S'<built-in method __sizeof__ of exceptions.AttributeError object>'
p47
sS'__doc__'
p48
S"'Attribute not found.'"
p49
sS'__init__'
p50
S"<method-wrapper '__init__' of exceptions.AttributeError object>"
p51
sS'__new__'
p52
S'<built-in method __new__ of type object>'
p53
ssS'evalue'
p54
S"'list' object has no attribute 'iteritems'"
p55
sS'request'
p56
cgluon.html
XML_unpickle
p57
(S's\xed\xa1\x00\x00<div><table><tr><td style="font-weight:bold;vertical-align:top;">ajax</td><td style="vertical-align:top;">:</td><td><div>False</div></td></tr><tr><td style="font-weight:bold;vertical-align:top;">application</td><td style="vertical-align:top;">:</td><td><div>editex</div></td></tr><tr><td style="font-weight:bold;vertical-align:top;">args</td><td style="vertical-align:top;">:</td><td><div><table></table></div></td></tr><tr><td style="font-weight:bold;vertical-align:top;">cid</td><td style="vertical-align:top;">:</td><td><div>None</div></td></tr><tr><td style="font-weight:bold;vertical-align:top;">client</td><td style="vertical-align:top;">:</td><td><div>127.0.0.1</div></td></tr><tr><td style="font-weight:bold;vertical-align:top;">controller</td><td style="vertical-align:top;">:</td><td><div>compose</div></td></tr><tr><td style="font-weight:bold;vertical-align:top;">cookies</td><td style="vertical-align:top;">:</td><td><div><table><tr><td style="font-weight:bold;vertical-align:top;">ajs_anonymous_id</td><td style="vertical-align:top;">:</td><td><div>%22c5ce07da-16c3-4f3a-b4fd-0a458506c7ad%22<table><tr><td style="font-weight:bold;vertical-align:top;">comment</td><td style="vertical-align:top;">:</td><td><div></div></td></tr><tr><td style="font-weight:bold;vertical-align:top;">domain</td><td style="vertical-align:top;">:</td><td><div></div></td></tr><tr><td style="font-weight:bold;vertical-align:top;">expires</td><td style="vertical-align:top;">:</td><td><div></div></td></tr><tr><td style="font-weight:bold;vertical-align:top;">httponly</td><td style="vertical-align:top;">:</td><td><div></div></td></tr><tr><td style="font-weight:bold;vertical-align:top;">max-age</td><td style="vertical-align:top;">:</td><td><div></div></td></tr><tr><td style="font-weight:bold;vertical-align:top;">path</td><td style="vertical-align:top;">:</td><td><div></div></td></tr><tr><td style="font-weight:bold;vertical-align:top;">secure</td><td style="vertical-align:top;">:</td><td><div></div></td></tr><tr><td style="font-weight:bold;vertical-align:top;">version</td><td style="vertical-align:top;">:</td><td><div></div></td></tr></table></div></td></tr><tr><td style="font-weight:bold;vertical-align:top;">ajs_group_id</td><td style="vertical-align:top;">:</td><td><div>null<table><tr><td style="font-weight:bold;vertical-align:top;">comment</td><td style="vertical-align:top;">:</td><td><div></div></td></tr><tr><td style="font-weight:bold;vertical-align:top;">domain</td><td style="vertical-align:top;">:</td><td><div></div></td></tr><tr><td style="font-weight:bold;vertical-align:top;">expires</td><td style="vertical-align:top;">:</td><td><div></div></td></tr><tr><td style="font-weight:bold;vertical-align:top;">httponly</td><td style="vertical-align:top;">:</td><td><div></div></td></tr><tr><td style="font-weight:bold;vertical-align:top;">max-age</td><td style="vertical-align:top;">:</td><td><div></div></td></tr><tr><td style="font-weight:bold;vertical-align:top;">path</td><td style="vertical-align:top;">:</td><td><div></div></td></tr><tr><td style="font-weight:bold;vertical-align:top;">secure</td><td style="vertical-align:top;">:</td><td><div></div></td></tr><tr><td style="font-weight:bold;vertical-align:top;">version</td><td style="vertical-align:top;">:</td><td><div></div></td></tr></table></div></td></tr><tr><td style="font-weight:bold;vertical-align:top;">ajs_user_id</td><td style="vertical-align:top;">:</td><td><div>null<table><tr><td style="font-weight:bold;vertical-align:top;">comment</td><td style="vertical-align:top;">:</td><td><div></div></td></tr><tr><td style="font-weight:bold;vertical-align:top;">domain</td><td style="vertical-align:top;">:</td><td><div></div></td></tr><tr><td style="font-weight:bold;vertical-align:top;">expires</td><td style="vertical-align:top;">:</td><td><div></div></td></tr><tr><td style="font-weight:bold;vertical-align:top;">httponly</td><td style="vertical-align:top;">:</td><td><div></div></td></tr><tr><td style="font-weight:bold;vertical-align:top;">max-age</td><td style="vertical-align:top;">:</td><td><div></div></td></tr><tr><td style="font-weight:bold;vertical-align:top;">path</td><td style="vertical-align:top;">:</td><td><div></div></td></tr><tr><td style="font-weight:bold;vertical-align:top;">secure</td><td style="vertical-align:top;">:</td><td><div></div></td></tr><tr><td style="font-weight:bold;vertical-align:top;">version</td><td style="vertical-align:top;">:</td><td><div></div></td></tr></table></div></td></tr><tr><td style="font-weight:bold;vertical-align:top;">mp_c5357a0b115c737650036b7b22ee864f_mixpanel</td><td style="vertical-align:top;">:</td><td><div>%7B%22distinct_id%22%3A%20%221531d8f5c972af-0c0a2a82c-35677f0a-140000-1531d8f5c98239%22%2C%22%24initial_referrer%22%3A%20%22%24direct%22%2C%22%24initial_referring_domain%22%3A%20%22%24direct%22%7D<table><tr><td style="font-weight:bold;vertical-align:top;">comment</td><td style="vertical-align:top;">:</td><td><div></div></td></tr><tr><td style="font-weight:bold;vertical-align:top;">domain</td><td style="vertical-align:top;">:</td><td><div></div></td></tr><tr><td style="font-weight:bold;vertical-align:top;">expires</td><td style="vertical-align:top;">:</td><td><div></div></td></tr><tr><td style="font-weight:bold;vertical-align:top;">httponly</td><td style="vertical-align:top;">:</td><td><div></div></td></tr><tr><td style="font-weight:bold;vertical-align:top;">max-age</td><td style="vertical-align:top;">:</td><td><div></div></td></tr><tr><td style="font-weight:bold;vertical-align:top;">path</td><td style="vertical-align:top;">:</td><td><div></div></td></tr><tr><td style="font-weight:bold;vertical-align:top;">secure</td><td style="vertical-align:top;">:</td><td><div></div></td></tr><tr><td style="font-weight:bold;vertical-align:top;">version</td><td style="vertical-align:top;">:</td><td><div></div></td></tr></table></div></td></tr><tr><td style="font-weight:bold;vertical-align:top;">session_data_examples</td><td style="vertical-align:top;">:</td><td><div>a719d67a662720dd86dd4d088f36c431:y3O1Aa4vHau1lcY99wVEoGyOU-ccOUkJra5OoVElfYjbtS9DT_rKU5MPGi6KrdGKhfJI3Gw649UsYxbRdsTUVgHHPI4TReR0b3bkTBPAO9Xcrw0gaPlpHva9iymH49w9d8EW_IJZCfgtP2h6piEYwsGRu5EV6hlKxLpJETyNBH2ecIvvfIIdeB2dqcNIwYm2rNVCc2Nc6WuBQPGf0kV2Y3bGAWB5nwxxdqUu_LU0F29w2UtRGhECmHeR3Ba9OFycwONitXJcz-PNE_R4jmECvQegsa-M8C7hjd2eojRxzDElCggNkXPiOvCFU9uviSTOl34_uMuUbhLc8zfHrwwis88yBunMh8LQ9vDxBLFfwxTpi2X7ow4Zhm3jBmCpROqNsBq18-dcyEuriQ3n6Ykm6A==<table><tr><td style="font-weight:bold;vertical-align:top;">comment</td><td style="vertical-align:top;">:</td><td><div></div></td></tr><tr><td style="font-weight:bold;vertical-align:top;">domain</td><td style="vertical-align:top;">:</td><td><div></div></td></tr><tr><td style="font-weight:bold;vertical-align:top;">expires</td><td style="vertical-align:top;">:</td><td><div></div></td></tr><tr><td style="font-weight:bold;vertical-align:top;">httponly</td><td style="vertical-align:top;">:</td><td><div></div></td></tr><tr><td style="font-weight:bold;vertical-align:top;">max-age</td><td style="vertical-align:top;">:</td><td><div></div></td></tr><tr><td style="font-weight:bold;vertical-align:top;">path</td><td style="vertical-align:top;">:</td><td><div></div></td></tr><tr><td style="font-weight:bold;vertical-align:top;">secure</td><td style="vertical-align:top;">:</td><td><div></div></td></tr><tr><td style="font-weight:bold;vertical-align:top;">version</td><td style="vertical-align:top;">:</td><td><div></div></td></tr></table></div></td></tr><tr><td style="font-weight:bold;vertical-align:top;">session_id_admin</td><td style="vertical-align:top;">:</td><td><div>127.0.0.1-849ebcc3-4aff-45e5-9abe-d8ebaf8fac6b<table><tr><td style="font-weight:bold;vertical-align:top;">comment</td><td style="vertical-align:top;">:</td><td><div></div></td></tr><tr><td style="font-weight:bold;vertical-align:top;">domain</td><td style="vertical-align:top;">:</td><td><div></div></td></tr><tr><td style="font-weight:bold;vertical-align:top;">expires</td><td style="vertical-align:top;">:</td><td><div></div></td></tr><tr><td style="font-weight:bold;vertical-align:top;">httponly</td><td style="vertical-align:top;">:</td><td><div></div></td></tr><tr><td style="font-weight:bold;vertical-align:top;">max-age</td><td style="vertical-align:top;">:</td><td><div></div></td></tr><tr><td style="font-weight:bold;vertical-align:top;">path</td><td style="vertical-align:top;">:</td><td><div></div></td></tr><tr><td style="font-weight:bold;vertical-align:top;">secure</td><td style="vertical-align:top;">:</td><td><div></div></td></tr><tr><td style="font-weight:bold;vertical-align:top;">version</td><td style="vertical-align:top;">:</td><td><div></div></td></tr></table></div></td></tr><tr><td style="font-weight:bold;vertical-align:top;">session_id_css_designer</td><td style="vertical-align:top;">:</td><td><div>127.0.0.1-78c75f63-b92d-4412-849c-00db8c073326<table><tr><td style="font-weight:bold;vertical-align:top;">comment</td><td style="vertical-align:top;">:</td><td><div></div></td></tr><tr><td style="font-weight:bold;vertical-align:top;">domain</td><td style="vertical-align:top;">:</td><td><div></div></td></tr><tr><td style="font-weight:bold;vertical-align:top;">expires</td><td style="vertical-align:top;">:</td><td><div></div></td></tr><tr><td style="font-weight:bold;vertical-align:top;">httponly</td><td style="vertical-align:top;">:</td><td><div></div></td></tr><tr><td style="font-weight:bold;vertical-align:top;">max-age</td><td style="vertical-align:top;">:</td><td><div></div></td></tr><tr><td style="font-weight:bold;vertical-align:top;">path</td><td style="vertical-align:top;">:</td><td><div></div></td></tr><tr><td style="font-weight:bold;vertical-align:top;">secure</td><td style="vertical-align:top;">:</td><td><div></div></td></tr><tr><td style="font-weight:bold;vertical-align:top;">version</td><td style="vertical-align:top;">:</td><td><div></div></td></tr></table></div></td></tr><tr><td style="font-weight:bold;vertical-align:top;">session_id_editex</td><td style="vertical-align:top;">:</td><td><div>127.0.0.1-90b1c556-5708-4fef-aa66-3ccd848ca38b<table><tr><td style="font-weight:bold;vertical-align:top;">comment</td><td style="vertical-align:top;">:</td><td><div></div></td></tr><tr><td style="font-weight:bold;vertical-align:top;">domain</td><td style="vertical-align:top;">:</td><td><div></div></td></tr><tr><td style="font-weight:bold;vertical-align:top;">expires</td><td style="vertical-align:top;">:</td><td><div></div></td></tr><tr><td style="font-weight:bold;vertical-align:top;">httponly</td><td style="vertical-align:top;">:</td><td><div></div></td></tr><tr><td style="font-weight:bold;vertical-align:top;">max-age</td><td style="vertical-align:top;">:</td><td><div></div></td></tr><tr><td style="font-weight:bold;vertical-align:top;">path</td><td style="vertical-align:top;">:</td><td><div></div></td></tr><tr><td style="font-weight:bold;vertical-align:top;">secure</td><td style="vertical-align:top;">:</td><td><div></div></td></tr><tr><td style="font-weight:bold;vertical-align:top;">version</td><td style="vertical-align:top;">:</td><td><div></div></td></tr></table></div></td></tr><tr><td style="font-weight:bold;vertical-align:top;">session_id_examples</td><td style="vertical-align:top;">:</td><td><div>True<table><tr><td style="font-weight:bold;vertical-align:top;">comment</td><td style="vertical-align:top;">:</td><td><div></div></td></tr><tr><td style="font-weight:bold;vertical-align:top;">domain</td><td style="vertical-align:top;">:</td><td><div></div></td></tr><tr><td style="font-weight:bold;vertical-align:top;">expires</td><td style="vertical-align:top;">:</td><td><div></div></td></tr><tr><td style="font-weight:bold;vertical-align:top;">httponly</td><td style="vertical-align:top;">:</td><td><div></div></td></tr><tr><td style="font-weight:bold;vertical-align:top;">max-age</td><td style="vertical-align:top;">:</td><td><div></div></td></tr><tr><td style="font-weight:bold;vertical-align:top;">path</td><td style="vertical-align:top;">:</td><td><div></div></td></tr><tr><td style="font-weight:bold;vertical-align:top;">secure</td><td style="vertical-align:top;">:</td><td><div></div></td></tr><tr><td style="font-weight:bold;vertical-align:top;">version</td><td style="vertical-align:top;">:</td><td><div></div></td></tr></table></div></td></tr><tr><td style="font-weight:bold;vertical-align:top;">session_id_issuetracker</td><td style="vertical-align:top;">:</td><td><div>127.0.0.1-6208738b-b1dc-4fe9-b9e8-ffa58d623c56<table><tr><td style="font-weight:bold;vertical-align:top;">comment</td><td style="vertical-align:top;">:</td><td><div></div></td></tr><tr><td style="font-weight:bold;vertical-align:top;">domain</td><td style="vertical-align:top;">:</td><td><div></div></td></tr><tr><td style="font-weight:bold;vertical-align:top;">expires</td><td style="vertical-align:top;">:</td><td><div></div></td></tr><tr><td style="font-weight:bold;vertical-align:top;">httponly</td><td style="vertical-align:top;">:</td><td><div></div></td></tr><tr><td style="font-weight:bold;vertical-align:top;">max-age</td><td style="vertical-align:top;">:</td><td><div></div></td></tr><tr><td style="font-weight:bold;vertical-align:top;">path</td><td style="vertical-align:top;">:</td><td><div></div></td></tr><tr><td style="font-weight:bold;vertical-align:top;">secure</td><td style="vertical-align:top;">:</td><td><div></div></td></tr><tr><td style="font-weight:bold;vertical-align:top;">version</td><td style="vertical-align:top;">:</td><td><div></div></td></tr></table></div></td></tr><tr><td style="font-weight:bold;vertical-align:top;">session_id_learningobjectives</td><td style="vertical-align:top;">:</td><td><div>127.0.0.1-c3fe3e0e-8c6c-45a7-8a6b-8da780c2e660<table><tr><td style="font-weight:bold;vertical-align:top;">comment</td><td style="vertical-align:top;">:</td><td><div></div></td></tr><tr><td style="font-weight:bold;vertical-align:top;">domain</td><td style="vertical-align:top;">:</td><td><div></div></td></tr><tr><td style="font-weight:bold;vertical-align:top;">expires</td><td style="vertical-align:top;">:</td><td><div></div></td></tr><tr><td style="font-weight:bold;vertical-align:top;">httponly</td><td style="vertical-align:top;">:</td><td><div></div></td></tr><tr><td style="font-weight:bold;vertical-align:top;">max-age</td><td style="vertical-align:top;">:</td><td><div></div></td></tr><tr><td style="font-weight:bold;vertical-align:top;">path</td><td style="vertical-align:top;">:</td><td><div></div></td></tr><tr><td style="font-weight:bold;vertical-align:top;">secure</td><td style="vertical-align:top;">:</td><td><div></div></td></tr><tr><td style="font-weight:bold;vertical-align:top;">version</td><td style="vertical-align:top;">:</td><td><div></div></td></tr></table></div></td></tr><tr><td style="font-weight:bold;vertical-align:top;">session_id_library</td><td style="vertical-align:top;">:</td><td><div>127.0.0.1-3dd90bc3-665f-470e-a2c2-67d827169bd1<table><tr><td style="font-weight:bold;vertical-align:top;">comment</td><td style="vertical-align:top;">:</td><td><div></div></td></tr><tr><td style="font-weight:bold;vertical-align:top;">domain</td><td style="vertical-align:top;">:</td><td><div></div></td></tr><tr><td style="font-weight:bold;vertical-align:top;">expires</td><td style="vertical-align:top;">:</td><td><div></div></td></tr><tr><td style="font-weight:bold;vertical-align:top;">httponly</td><td style="vertical-align:top;">:</td><td><div></div></td></tr><tr><td style="font-weight:bold;vertical-align:top;">max-age</td><td style="vertical-align:top;">:</td><td><div></div></td></tr><tr><td style="font-weight:bold;vertical-align:top;">path</td><td style="vertical-align:top;">:</td><td><div></div></td></tr><tr><td style="font-weight:bold;vertical-align:top;">secure</td><td style="vertical-align:top;">:</td><td><div></div></td></tr><tr><td style="font-weight:bold;vertical-align:top;">version</td><td style="vertical-align:top;">:</td><td><div></div></td></tr></table></div></td></tr><tr><td style="font-weight:bold;vertical-align:top;">session_id_projectmanager</td><td style="vertical-align:top;">:</td><td><div>127.0.0.1-a1ced81b-98dc-49ad-960a-fb1e2c9af9d0<table><tr><td style="font-weight:bold;vertical-align:top;">comment</td><td style="vertical-align:top;">:</td><td><div></div></td></tr><tr><td style="font-weight:bold;vertical-align:top;">domain</td><td style="vertical-align:top;">:</td><td><div></div></td></tr><tr><td style="font-weight:bold;vertical-align:top;">expires</td><td style="vertical-align:top;">:</td><td><div></div></td></tr><tr><td style="font-weight:bold;vertical-align:top;">httponly</td><td style="vertical-align:top;">:</td><td><div></div></td></tr><tr><td style="font-weight:bold;vertical-align:top;">max-age</td><td style="vertical-align:top;">:</td><td><div></div></td></tr><tr><td style="font-weight:bold;vertical-align:top;">path</td><td style="vertical-align:top;">:</td><td><div></div></td></tr><tr><td style="font-weight:bold;vertical-align:top;">secure</td><td style="vertical-align:top;">:</td><td><div></div></td></tr><tr><td style="font-weight:bold;vertical-align:top;">version</td><td style="vertical-align:top;">:</td><td><div></div></td></tr></table></div></td></tr><tr><td style="font-weight:bold;vertical-align:top;">session_id_quizbuilder</td><td style="vertical-align:top;">:</td><td><div>127.0.0.1-9fc10577-b496-4b54-8263-673447092503<table><tr><td style="font-weight:bold;vertical-align:top;">comment</td><td style="vertical-align:top;">:</td><td><div></div></td></tr><tr><td style="font-weight:bold;vertical-align:top;">domain</td><td style="vertical-align:top;">:</td><td><div></div></td></tr><tr><td style="font-weight:bold;vertical-align:top;">expires</td><td style="vertical-align:top;">:</td><td><div></div></td></tr><tr><td style="font-weight:bold;vertical-align:top;">httponly</td><td style="vertical-align:top;">:</td><td><div></div></td></tr><tr><td style="font-weight:bold;vertical-align:top;">max-age</td><td style="vertical-align:top;">:</td><td><div></div></td></tr><tr><td style="font-weight:bold;vertical-align:top;">path</td><td style="vertical-align:top;">:</td><td><div></div></td></tr><tr><td style="font-weight:bold;vertical-align:top;">secure</td><td style="vertical-align:top;">:</td><td><div></div></td></tr><tr><td style="font-weight:bold;vertical-align:top;">version</td><td style="vertical-align:top;">:</td><td><div></div></td></tr></table></div></td></tr><tr><td style="font-weight:bold;vertical-align:top;">session_id_welcome</td><td style="vertical-align:top;">:</td><td><div>127.0.0.1-ad7acc94-0907-413a-b772-3b319a0d959e<table><tr><td style="font-weight:bold;vertical-align:top;">comment</td><td style="vertical-align:top;">:</td><td><div></div></td></tr><tr><td style="font-weight:bold;vertical-align:top;">domain</td><td style="vertical-align:top;">:</td><td><div></div></td></tr><tr><td style="font-weight:bold;vertical-align:top;">expires</td><td style="vertical-align:top;">:</td><td><div></div></td></tr><tr><td style="font-weight:bold;vertical-align:top;">httponly</td><td style="vertical-align:top;">:</td><td><div></div></td></tr><tr><td style="font-weight:bold;vertical-align:top;">max-age</td><td style="vertical-align:top;">:</td><td><div></div></td></tr><tr><td style="font-weight:bold;vertical-align:top;">path</td><td style="vertical-align:top;">:</td><td><div></div></td></tr><tr><td style="font-weight:bold;vertical-align:top;">secure</td><td style="vertical-align:top;">:</td><td><div></div></td></tr><tr><td style="font-weight:bold;vertical-align:top;">version</td><td style="vertical-align:top;">:</td><td><div></div></td></tr></table></div></td></tr></table></div></td></tr><tr><td style="font-weight:bold;vertical-align:top;">env</td><td style="vertical-align:top;">:</td><td><div><table><tr><td style="font-weight:bold;vertical-align:top;">HTTP_ACCEPT</td><td style="vertical-align:top;">:</td><td><div>text/html,application/xhtml+xml,application/xml;q=0.9,image/webp,*/*;q=0.8</div></td></tr><tr><td style="font-weight:bold;vertical-align:top;">HTTP_ACCEPT_ENCODING</td><td style="vertical-align:top;">:</td><td><div>gzip, deflate, sdch</div></td></tr><tr><td style="font-weight:bold;vertical-align:top;">HTTP_ACCEPT_LANGUAGE</td><td style="vertical-align:top;">:</td><td><div>en-US,en;q=0.8</div></td></tr><tr><td style="font-weight:bold;vertical-align:top;">HTTP_CONNECTION</td><td style="vertical-align:top;">:</td><td><div>keep-alive</div></td></tr><tr><td style="font-weight:bold;vertical-align:top;">HTTP_COOKIE</td><td style="vertical-align:top;">:</td><td><div>ajs_anonymous_id=%22c5ce07da-16c3-4f3a-b4fd-0a458506c7ad%22; ajs_user_id=null; ajs_group_id=null; mp_c5357a0b115c737650036b7b22ee864f_mixpanel=%7B%22distinct_id%22%3A%20%221531d8f5c972af-0c0a2a82c-35677f0a-140000-1531d8f5c98239%22%2C%22%24initial_referrer%22%3A%20%22%24direct%22%2C%22%24initial_referring_domain%22%3A%20%22%24direct%22%7D; session_data_examples=&quot;a719d67a662720dd86dd4d088f36c431:y3O1Aa4vHau1lcY99wVEoGyOU-ccOUkJra5OoVElfYjbtS9DT_rKU5MPGi6KrdGKhfJI3Gw649UsYxbRdsTUVgHHPI4TReR0b3bkTBPAO9Xcrw0gaPlpHva9iymH49w9d8EW_IJZCfgtP2h6piEYwsGRu5EV6hlKxLpJETyNBH2ecIvvfIIdeB2dqcNIwYm2rNVCc2Nc6WuBQPGf0kV2Y3bGAWB5nwxxdqUu_LU0F29w2UtRGhECmHeR3Ba9OFycwONitXJcz-PNE_R4jmECvQegsa-M8C7hjd2eojRxzDElCggNkXPiOvCFU9uviSTOl34_uMuUbhLc8zfHrwwis88yBunMh8LQ9vDxBLFfwxTpi2X7ow4Zhm3jBmCpROqNsBq18-dcyEuriQ3n6Ykm6A==&quot;; session_id_examples=True; session_id_library=127.0.0.1-3dd90bc3-665f-470e-a2c2-67d827169bd1; session_id_css_designer=127.0.0.1-78c75f63-b92d-4412-849c-00db8c073326; session_id_learningobjectives=127.0.0.1-c3fe3e0e-8c6c-45a7-8a6b-8da780c2e660; session_id_projectmanager=127.0.0.1-a1ced81b-98dc-49ad-960a-fb1e2c9af9d0; session_id_issuetracker=127.0.0.1-6208738b-b1dc-4fe9-b9e8-ffa58d623c56; session_id_quizbuilder=127.0.0.1-9fc10577-b496-4b54-8263-673447092503; session_id_welcome=127.0.0.1-ad7acc94-0907-413a-b772-3b319a0d959e; session_id_editex=127.0.0.1-90b1c556-5708-4fef-aa66-3ccd848ca38b; session_id_admin=127.0.0.1-849ebcc3-4aff-45e5-9abe-d8ebaf8fac6b</div></td></tr><tr><td style="font-weight:bold;vertical-align:top;">HTTP_HOST</td><td style="vertical-align:top;">:</td><td><div>127.0.0.1:8000</div></td></tr><tr><td style="font-weight:bold;vertical-align:top;">HTTP_UPGRADE_INSECURE_REQUESTS</td><td style="vertical-align:top;">:</td><td><div>1</div></td></tr><tr><td style="font-weight:bold;vertical-align:top;">HTTP_USER_AGENT</td><td style="vertical-align:top;">:</td><td><div>Mozilla/5.0 (Macintosh; Intel Mac OS X 10_10_5) AppleWebKit/537.36 (KHTML, like Gecko) Chrome/49.0.2623.87 Safari/537.36</div></td></tr><tr><td style="font-weight:bold;vertical-align:top;">PATH_INFO</td><td style="vertical-align:top;">:</td><td><div>/editex/compose/append_txt</div></td></tr><tr><td style="font-weight:bold;vertical-align:top;">QUERY_STRING</td><td style="vertical-align:top;">:</td><td><div></div></td></tr><tr><td style="font-weight:bold;vertical-align:top;">REMOTE_ADDR</td><td style="vertical-align:top;">:</td><td><div>127.0.0.1</div></td></tr><tr><td style="font-weight:bold;vertical-align:top;">REMOTE_PORT</td><td style="vertical-align:top;">:</td><td><div>55369</div></td></tr><tr><td style="font-weight:bold;vertical-align:top;">REQUEST_METHOD</td><td style="vertical-align:top;">:</td><td><div>GET</div></td></tr><tr><td style="font-weight:bold;vertical-align:top;">SCRIPT_NAME</td><td style="vertical-align:top;">:</td><td><div></div></td></tr><tr><td style="font-weight:bold;vertical-align:top;">SERVER_NAME</td><td style="vertical-align:top;">:</td><td><div>minion.local</div></td></tr><tr><td style="font-weight:bold;vertical-align:top;">SERVER_PORT</td><td style="vertical-align:top;">:</td><td><div>8000</div></td></tr><tr><td style="font-weight:bold;vertical-align:top;">SERVER_PROTOCOL</td><td style="vertical-align:top;">:</td><td><div>HTTP/1.1</div></td></tr><tr><td style="font-weight:bold;vertical-align:top;">SERVER_SOFTWARE</td><td style="vertical-align:top;">:</td><td><div>Rocket 1.2.6</div></td></tr><tr><td style="font-weight:bold;vertical-align:top;">app_folders</td><td style="vertical-align:top;">:</td><td><div>set([&#x27;/Users/admin/web2py/applications/quizbuilder/&#x27;, &#x27;/Users/admin/web2py/applications/admin/&#x27;, &#x27;/Users/admin/web2py/applications/editex/&#x27;, &#x27;/Users/admin/web2py/applications/welcome/&#x27;])</div></td></tr><tr><td style="font-weight:bold;vertical-align:top;">applications_parent</td><td style="vertical-align:top;">:</td><td><div>/Users/admin/web2py</div></td></tr><tr><td style="font-weight:bold;vertical-align:top;">cmd_args</td><td style="vertical-align:top;">:</td><td><div><table></table></div></td></tr><tr><td style="font-weight:bold;vertical-align:top;">cmd_options</td><td style="vertical-align:top;">:</td><td><div>&lt;Values at 0x10779e248: {&#x27;verbose&#x27;: False, &#x27;ip&#x27;: &#x27;127.0.0.1&#x27;, &#x27;debuglevel&#x27;: 30, &#x27;with_scheduler&#x27;: False, &#x27;ips&#x27;: [&#x27;fe80::21f:f3ff:fe6e:386%fw0&#x27;, &#x27;192.168.2.200&#x27;, &#x27;192.168.1.15&#x27;, &#x27;fe80::21f:5bff:fe38:218%en0&#x27;], &#x27;shutdown_timeout&#x27;: 5, &#x27;taskbar&#x27;: False, &#x27;with_coverage&#x27;: False, &#x27;scheduler_groups&#x27;: None, &#x27;port&#x27;: 8000, &#x27;maxthreads&#x27;: None, &#x27;softcron&#x27;: False, &#x27;server_name&#x27;: &#x27;minion.local&#x27;, &#x27;bpython&#x27;: False, &#x27;nogui&#x27;: False, &#x27;pid_filename&#x27;: &#x27;httpserver.pid&#x27;, &#x27;print_errors&#x27;: False, &#x27;extcron&#x27;: False, &#x27;runcron&#x27;: False, &#x27;run_system_tests&#x27;: False, &#x27;test&#x27;: None, &#x27;folder&#x27;: &#x27;/Users/admin/web2py&#x27;, &#x27;config&#x27;: &#x27;&#x27;, &#x27;minthreads&#x27;: None, &#x27;shell&#x27;: None, &#x27;run&#x27;: &#x27;&#x27;, &#x27;log_filename&#x27;: &#x27;httpserver.log&#x27;, &#x27;profiler_dir&#x27;: None, &#x27;args&#x27;: [&#x27;&#x27;], &#x27;socket_timeout&#x27;: 5, &#x27;ssl_ca_certificate&#x27;: None, &#x27;scheduler&#x27;: None, &#x27;interfaces&#x27;: None, &#x27;ssl_private_key&#x27;: &#x27;&#x27;, &#x27;gae&#x27;: None, &#x27;password&#x27;: &#x27;&lt;ask&gt;&#x27;, &#x27;request_queue_size&#x27;: 5, &#x27;ssl_certificate&#x27;: &#x27;&#x27;, &#x27;cronjob&#x27;: False, &#x27;numthreads&#x27;: None, &#x27;quiet&#x27;: False, &#x27;import_models&#x27;: False, &#x27;timeout&#x27;: 10, &#x27;plain&#x27;: False, &#x27;nobanner&#x27;: False}&gt;</div></td></tr><tr><td style="font-weight:bold;vertical-align:top;">db_sessions</td><td style="vertical-align:top;">:</td><td><div>set([])</div></td></tr><tr><td style="font-weight:bold;vertical-align:top;">debugging</td><td style="vertical-align:top;">:</td><td><div>False</div></td></tr><tr><td style="font-weight:bold;vertical-align:top;">gluon_parent</td><td style="vertical-align:top;">:</td><td><div>/Users/admin/web2py</div></td></tr><tr><td style="font-weight:bold;vertical-align:top;">http_accept</td><td style="vertical-align:top;">:</td><td><div>text/html,application/xhtml+xml,application/xml;q=0.9,image/webp,*/*;q=0.8</div></td></tr><tr><td style="font-weight:bold;vertical-align:top;">http_accept_encoding</td><td style="vertical-align:top;">:</td><td><div>gzip, deflate, sdch</div></td></tr><tr><td style="font-weight:bold;vertical-align:top;">http_accept_language</td><td style="vertical-align:top;">:</td><td><div>en-US,en;q=0.8</div></td></tr><tr><td style="font-weight:bold;vertical-align:top;">http_connection</td><td style="vertical-align:top;">:</td><td><div>keep-alive</div></td></tr><tr><td style="font-weight:bold;vertical-align:top;">http_cookie</td><td style="vertical-align:top;">:</td><td><div>ajs_anonymous_id=%22c5ce07da-16c3-4f3a-b4fd-0a458506c7ad%22; ajs_user_id=null; ajs_group_id=null; mp_c5357a0b115c737650036b7b22ee864f_mixpanel=%7B%22distinct_id%22%3A%20%221531d8f5c972af-0c0a2a82c-35677f0a-140000-1531d8f5c98239%22%2C%22%24initial_referrer%22%3A%20%22%24direct%22%2C%22%24initial_referring_domain%22%3A%20%22%24direct%22%7D; session_data_examples=&quot;a719d67a662720dd86dd4d088f36c431:y3O1Aa4vHau1lcY99wVEoGyOU-ccOUkJra5OoVElfYjbtS9DT_rKU5MPGi6KrdGKhfJI3Gw649UsYxbRdsTUVgHHPI4TReR0b3bkTBPAO9Xcrw0gaPlpHva9iymH49w9d8EW_IJZCfgtP2h6piEYwsGRu5EV6hlKxLpJETyNBH2ecIvvfIIdeB2dqcNIwYm2rNVCc2Nc6WuBQPGf0kV2Y3bGAWB5nwxxdqUu_LU0F29w2UtRGhECmHeR3Ba9OFycwONitXJcz-PNE_R4jmECvQegsa-M8C7hjd2eojRxzDElCggNkXPiOvCFU9uviSTOl34_uMuUbhLc8zfHrwwis88yBunMh8LQ9vDxBLFfwxTpi2X7ow4Zhm3jBmCpROqNsBq18-dcyEuriQ3n6Ykm6A==&quot;; session_id_examples=True; session_id_library=127.0.0.1-3dd90bc3-665f-470e-a2c2-67d827169bd1; session_id_css_designer=127.0.0.1-78c75f63-b92d-4412-849c-00db8c073326; session_id_learningobjectives=127.0.0.1-c3fe3e0e-8c6c-45a7-8a6b-8da780c2e660; session_id_projectmanager=127.0.0.1-a1ced81b-98dc-49ad-960a-fb1e2c9af9d0; session_id_issuetracker=127.0.0.1-6208738b-b1dc-4fe9-b9e8-ffa58d623c56; session_id_quizbuilder=127.0.0.1-9fc10577-b496-4b54-8263-673447092503; session_id_welcome=127.0.0.1-ad7acc94-0907-413a-b772-3b319a0d959e; session_id_editex=127.0.0.1-90b1c556-5708-4fef-aa66-3ccd848ca38b; session_id_admin=127.0.0.1-849ebcc3-4aff-45e5-9abe-d8ebaf8fac6b</div></td></tr><tr><td style="font-weight:bold;vertical-align:top;">http_host</td><td style="vertical-align:top;">:</td><td><div>127.0.0.1:8000</div></td></tr><tr><td style="font-weight:bold;vertical-align:top;">http_upgrade_insecure_requests</td><td style="vertical-align:top;">:</td><td><div>1</div></td></tr><tr><td style="font-weight:bold;vertical-align:top;">http_user_agent</td><td style="vertical-align:top;">:</td><td><div>Mozilla/5.0 (Macintosh; Intel Mac OS X 10_10_5) AppleWebKit/537.36 (KHTML, like Gecko) Chrome/49.0.2623.87 Safari/537.36</div></td></tr><tr><td style="font-weight:bold;vertical-align:top;">is_jython</td><td style="vertical-align:top;">:</td><td><div>False</div></td></tr><tr><td style="font-weight:bold;vertical-align:top;">is_pypy</td><td style="vertical-align:top;">:</td><td><div>False</div></td></tr><tr><td style="font-weight:bold;vertical-align:top;">is_source</td><td style="vertical-align:top;">:</td><td><div>True</div></td></tr><tr><td style="font-weight:bold;vertical-align:top;">local_hosts</td><td style="vertical-align:top;">:</td><td><div><table><tr><td><div>minion.local</div></td></tr><tr><td><div>::ffff:127.0.0.1</div></td></tr><tr><td><div>::1</div></td></tr><tr><td><div>fe80::21f:5bff:fe38:218%en0</div></td></tr><tr><td><div>fe80::21f:f3ff:fe6e:386%fw0</div></td></tr><tr><td><div>192.168.1.15</div></td></tr><tr><td><div>192.168.2.200</div></td></tr><tr><td><div>127.0.0.1</div></td></tr></table></div></td></tr><tr><td style="font-weight:bold;vertical-align:top;">path_info</td><td style="vertical-align:top;">:</td><td><div>/editex/compose/append_txt</div></td></tr><tr><td style="font-weight:bold;vertical-align:top;">query_string</td><td style="vertical-align:top;">:</td><td><div></div></td></tr><tr><td style="font-weight:bold;vertical-align:top;">remote_addr</td><td style="vertical-align:top;">:</td><td><div>127.0.0.1</div></td></tr><tr><td style="font-weight:bold;vertical-align:top;">remote_port</td><td style="vertical-align:top;">:</td><td><div>55369</div></td></tr><tr><td style="font-weight:bold;vertical-align:top;">request_method</td><td style="vertical-align:top;">:</td><td><div>GET</div></td></tr><tr><td style="font-weight:bold;vertical-align:top;">request_uri</td><td style="vertical-align:top;">:</td><td><div>/editex/compose/append_txt</div></td></tr><tr><td style="font-weight:bold;vertical-align:top;">script_name</td><td style="vertical-align:top;">:</td><td><div></div></td></tr><tr><td style="font-weight:bold;vertical-align:top;">server_name</td><td style="vertical-align:top;">:</td><td><div>minion.local</div></td></tr><tr><td style="font-weight:bold;vertical-align:top;">server_port</td><td style="vertical-align:top;">:</td><td><div>8000</div></td></tr><tr><td style="font-weight:bold;vertical-align:top;">server_protocol</td><td style="vertical-align:top;">:</td><td><div>HTTP/1.1</div></td></tr><tr><td style="font-weight:bold;vertical-align:top;">server_software</td><td style="vertical-align:top;">:</td><td><div>Rocket 1.2.6</div></td></tr><tr><td style="font-weight:bold;vertical-align:top;">web2py_path</td><td style="vertical-align:top;">:</td><td><div>/Users/admin/web2py</div></td></tr><tr><td style="font-weight:bold;vertical-align:top;">web2py_version</td><td style="vertical-align:top;">:</td><td><div>2.12.3-stable+timestamp.2015.08.18.19.14.07</div></td></tr><tr><td style="font-weight:bold;vertical-align:top;">wsgi.errors</td><td style="vertical-align:top;">:</td><td><div>&lt;open file &#x27;&lt;stderr&gt;&#x27;, mode &#x27;w&#x27; at 0x1066fc1e0&gt;</div></td></tr><tr><td style="font-weight:bold;vertical-align:top;">wsgi.file_wrapper</td><td style="vertical-align:top;">:</td><td><div>&lt;class wsgiref.util.FileWrapper at 0x107726600&gt;</div></td></tr><tr><td style="font-weight:bold;vertical-align:top;">wsgi.input</td><td style="vertical-align:top;">:</td><td><div>&lt;socket._fileobject object at 0x113363cd0&gt;</div></td></tr><tr><td style="font-weight:bold;vertical-align:top;">wsgi.multiprocess</td><td style="vertical-align:top;">:</td><td><div>False</div></td></tr><tr><td style="font-weight:bold;vertical-align:top;">wsgi.multithread</td><td style="vertical-align:top;">:</td><td><div>True</div></td></tr><tr><td style="font-weight:bold;vertical-align:top;">wsgi.run_once</td><td style="vertical-align:top;">:</td><td><div>False</div></td></tr><tr><td style="font-weight:bold;vertical-align:top;">wsgi.url_scheme</td><td style="vertical-align:top;">:</td><td><div>http</div></td></tr><tr><td style="font-weight:bold;vertical-align:top;">wsgi.version</td><td style="vertical-align:top;">:</td><td><div><table><tr><td><div>1</div></td></tr><tr><td><div>0</div></td></tr></table></div></td></tr><tr><td style="font-weight:bold;vertical-align:top;">wsgi_errors</td><td style="vertical-align:top;">:</td><td><div>&lt;open file &#x27;&lt;stderr&gt;&#x27;, mode &#x27;w&#x27; at 0x1066fc1e0&gt;</div></td></tr><tr><td style="font-weight:bold;vertical-align:top;">wsgi_file_wrapper</td><td style="vertical-align:top;">:</td><td><div>&lt;class wsgiref.util.FileWrapper at 0x107726600&gt;</div></td></tr><tr><td style="font-weight:bold;vertical-align:top;">wsgi_input</td><td style="vertical-align:top;">:</td><td><div>&lt;socket._fileobject object at 0x113363cd0&gt;</div></td></tr><tr><td style="font-weight:bold;vertical-align:top;">wsgi_multiprocess</td><td style="vertical-align:top;">:</td><td><div>False</div></td></tr><tr><td style="font-weight:bold;vertical-align:top;">wsgi_multithread</td><td style="vertical-align:top;">:</td><td><div>True</div></td></tr><tr><td style="font-weight:bold;vertical-align:top;">wsgi_run_once</td><td style="vertical-align:top;">:</td><td><div>False</div></td></tr><tr><td style="font-weight:bold;vertical-align:top;">wsgi_url_scheme</td><td style="vertical-align:top;">:</td><td><div>http</div></td></tr><tr><td style="font-weight:bold;vertical-align:top;">wsgi_version</td><td style="vertical-align:top;">:</td><td><div><table><tr><td><div>1</div></td></tr><tr><td><div>0</div></td></tr></table></div></td></tr></table></div></td></tr><tr><td style="font-weight:bold;vertical-align:top;">extension</td><td style="vertical-align:top;">:</td><td><div>html</div></td></tr><tr><td style="font-weight:bold;vertical-align:top;">folder</td><td style="vertical-align:top;">:</td><td><div>/Users/admin/web2py/applications/editex/</div></td></tr><tr><td style="font-weight:bold;vertical-align:top;">function</td><td style="vertical-align:top;">:</td><td><div>append_txt</div></td></tr><tr><td style="font-weight:bold;vertical-align:top;">global_settings</td><td style="vertical-align:top;">:</td><td><div><table><tr><td style="font-weight:bold;vertical-align:top;">app_folders</td><td style="vertical-align:top;">:</td><td><div>set([&#x27;/Users/admin/web2py/applications/quizbuilder/&#x27;, &#x27;/Users/admin/web2py/applications/admin/&#x27;, &#x27;/Users/admin/web2py/applications/editex/&#x27;, &#x27;/Users/admin/web2py/applications/welcome/&#x27;])</div></td></tr><tr><td style="font-weight:bold;vertical-align:top;">applications_parent</td><td style="vertical-align:top;">:</td><td><div>/Users/admin/web2py</div></td></tr><tr><td style="font-weight:bold;vertical-align:top;">cmd_args</td><td style="vertical-align:top;">:</td><td><div><table></table></div></td></tr><tr><td style="font-weight:bold;vertical-align:top;">cmd_options</td><td style="vertical-align:top;">:</td><td><div>&lt;Values at 0x10779e248: {&#x27;verbose&#x27;: False, &#x27;ip&#x27;: &#x27;127.0.0.1&#x27;, &#x27;debuglevel&#x27;: 30, &#x27;with_scheduler&#x27;: False, &#x27;ips&#x27;: [&#x27;fe80::21f:f3ff:fe6e:386%fw0&#x27;, &#x27;192.168.2.200&#x27;, &#x27;192.168.1.15&#x27;, &#x27;fe80::21f:5bff:fe38:218%en0&#x27;], &#x27;shutdown_timeout&#x27;: 5, &#x27;taskbar&#x27;: False, &#x27;with_coverage&#x27;: False, &#x27;scheduler_groups&#x27;: None, &#x27;port&#x27;: 8000, &#x27;maxthreads&#x27;: None, &#x27;softcron&#x27;: False, &#x27;server_name&#x27;: &#x27;minion.local&#x27;, &#x27;bpython&#x27;: False, &#x27;nogui&#x27;: False, &#x27;pid_filename&#x27;: &#x27;httpserver.pid&#x27;, &#x27;print_errors&#x27;: False, &#x27;extcron&#x27;: False, &#x27;runcron&#x27;: False, &#x27;run_system_tests&#x27;: False, &#x27;test&#x27;: None, &#x27;folder&#x27;: &#x27;/Users/admin/web2py&#x27;, &#x27;config&#x27;: &#x27;&#x27;, &#x27;minthreads&#x27;: None, &#x27;shell&#x27;: None, &#x27;run&#x27;: &#x27;&#x27;, &#x27;log_filename&#x27;: &#x27;httpserver.log&#x27;, &#x27;profiler_dir&#x27;: None, &#x27;args&#x27;: [&#x27;&#x27;], &#x27;socket_timeout&#x27;: 5, &#x27;ssl_ca_certificate&#x27;: None, &#x27;scheduler&#x27;: None, &#x27;interfaces&#x27;: None, &#x27;ssl_private_key&#x27;: &#x27;&#x27;, &#x27;gae&#x27;: None, &#x27;password&#x27;: &#x27;&lt;ask&gt;&#x27;, &#x27;request_queue_size&#x27;: 5, &#x27;ssl_certificate&#x27;: &#x27;&#x27;, &#x27;cronjob&#x27;: False, &#x27;numthreads&#x27;: None, &#x27;quiet&#x27;: False, &#x27;import_models&#x27;: False, &#x27;timeout&#x27;: 10, &#x27;plain&#x27;: False, &#x27;nobanner&#x27;: False}&gt;</div></td></tr><tr><td style="font-weight:bold;vertical-align:top;">db_sessions</td><td style="vertical-align:top;">:</td><td><div>set([])</div></td></tr><tr><td style="font-weight:bold;vertical-align:top;">debugging</td><td style="vertical-align:top;">:</td><td><div>False</div></td></tr><tr><td style="font-weight:bold;vertical-align:top;">gluon_parent</td><td style="vertical-align:top;">:</td><td><div>/Users/admin/web2py</div></td></tr><tr><td style="font-weight:bold;vertical-align:top;">is_jython</td><td style="vertical-align:top;">:</td><td><div>False</div></td></tr><tr><td style="font-weight:bold;vertical-align:top;">is_pypy</td><td style="vertical-align:top;">:</td><td><div>False</div></td></tr><tr><td style="font-weight:bold;vertical-align:top;">is_source</td><td style="vertical-align:top;">:</td><td><div>True</div></td></tr><tr><td style="font-weight:bold;vertical-align:top;">local_hosts</td><td style="vertical-align:top;">:</td><td><div><table><tr><td><div>minion.local</div></td></tr><tr><td><div>::ffff:127.0.0.1</div></td></tr><tr><td><div>::1</div></td></tr><tr><td><div>fe80::21f:5bff:fe38:218%en0</div></td></tr><tr><td><div>fe80::21f:f3ff:fe6e:386%fw0</div></td></tr><tr><td><div>192.168.1.15</div></td></tr><tr><td><div>192.168.2.200</div></td></tr><tr><td><div>127.0.0.1</div></td></tr></table></div></td></tr><tr><td style="font-weight:bold;vertical-align:top;">web2py_version</td><td style="vertical-align:top;">:</td><td><div>2.12.3-stable+timestamp.2015.08.18.19.14.07</div></td></tr></table></div></td></tr><tr><td style="font-weight:bold;vertical-align:top;">is_https</td><td style="vertical-align:top;">:</td><td><div>False</div></td></tr><tr><td style="font-weight:bold;vertical-align:top;">is_local</td><td style="vertical-align:top;">:</td><td><div>True</div></td></tr><tr><td style="font-weight:bold;vertical-align:top;">is_restful</td><td style="vertical-align:top;">:</td><td><div>False</div></td></tr><tr><td style="font-weight:bold;vertical-align:top;">is_sheduler</td><td style="vertical-align:top;">:</td><td><div>None</div></td></tr><tr><td style="font-weight:bold;vertical-align:top;">is_shell</td><td style="vertical-align:top;">:</td><td><div>None</div></td></tr><tr><td style="font-weight:bold;vertical-align:top;">now</td><td style="vertical-align:top;">:</td><td><div>datetime.datetime(2016, 3, 29, 16, 52, 51, 480540)</div></td></tr><tr><td style="font-weight:bold;vertical-align:top;">raw_args</td><td style="vertical-align:top;">:</td><td><div></div></td></tr><tr><td style="font-weight:bold;vertical-align:top;">raw_extension</td><td style="vertical-align:top;">:</td><td><div>None</div></td></tr><tr><td style="font-weight:bold;vertical-align:top;">url</td><td style="vertical-align:top;">:</td><td><div>/editex/compose/append_txt</div></td></tr><tr><td style="font-weight:bold;vertical-align:top;">utcnow</td><td style="vertical-align:top;">:</td><td><div>datetime.datetime(2016, 3, 29, 23, 52, 51, 480559)</div></td></tr><tr><td style="font-weight:bold;vertical-align:top;">wsgi</td><td style="vertical-align:top;">:</td><td><div>&lt;gluon.main.LazyWSGI object at 0x112ca1110&gt;</div></td></tr></table></div>'
tRp58
sS'frames'
p59
(lp60
(dp61
S'file'
p62
S'/Users/admin/web2py/gluon/restricted.py'
p63
sS'dump'
p64
(dp65
S'environment'
p66
S"{'A': <class 'gluon.html.A'>, 'ANY_OF': <class 'gluon.validators.ANY_OF'>, 'ASSIGNJS': <function ASSIGNJS>, 'AppConfig': <function AppConfig>, 'Auth': <class 'gluon.tools.Auth'>, 'B': <class 'gluon.html.B'>, 'BEAUTIFY': <class 'gluon.html.BEAUTIFY'>, 'BODY': <class 'gluon.html.BODY'>, 'BR': <class 'gluon.html.BR'>, 'BUTTON': <class 'gluon.html.BUTTON'>, ...}"
p67
sS'ccode'
p68
S'<code object <module> at 0x1137d8f30, file "/Use...lications/editex/controllers/compose.py", line 1>'
p69
ssS'lnum'
p70
I227
sS'lines'
p71
(dp72
I224
S'            ccode = code'
p73
sI225
S'        else:'
p74
sI226
S'            ccode = compile2(code, layer)'
p75
sI227
S'        exec ccode in environment'
p76
sI228
S'    except HTTP:'
p77
sI229
S'        raise'
p78
sI230
S'    except RestrictedError:'
p79
sI231
S'        # do not encapsulate (obfuscate) the original RestrictedError'
p80
sI222
S'    try:'
p81
sI223
S'        if isinstance(code, types.CodeType):'
p82
ssS'call'
p83
S"(code='import datetime\\n\\nact_flag = 0\\n\\ndef auth_button()...i=i)\\nresponse._vars=response._caller(append_txt)\\n', environment={'A': <class 'gluon.html.A'>, 'ANY_OF': <class 'gluon.validators.ANY_OF'>, 'ASSIGNJS': <function ASSIGNJS>, 'AppConfig': <function AppConfig>, 'Auth': <class 'gluon.tools.Auth'>, 'B': <class 'gluon.html.B'>, 'BEAUTIFY': <class 'gluon.html.BEAUTIFY'>, 'BODY': <class 'gluon.html.BODY'>, 'BR': <class 'gluon.html.BR'>, 'BUTTON': <class 'gluon.html.BUTTON'>, ...}, layer='/Users/admin/web2py/applications/editex/controllers/compose.py')"
p84
sS'func'
p85
S'restricted'
p86
sa(dp87
g62
S'/Users/admin/web2py/applications/editex/controllers/compose.py'
p88
sg64
(dp89
sg70
I162
sg71
(dp90
I160
S'            i = i + 1'
p91
sI161
S'    return dict(i=i)'
p92
sI152
S''
sI153
S'def sym_insert():'
p93
sI154
S"    sets=dict(greek=['\xce\xb1','\xce\xb2','\xce\xb3','\xce\xb4','\xce\xb5','\xce\xb6','\xce\xb7','\xce\xb8','\xce\xb9','\xce\xba','\xce\xbb','\xce\xbc','\xce\xbd','\xce\xbe','\xce\xbf','\xcf\x80','\xcf\x81','\xcf\x82','\xcf\x84','\xcf\x85','\xcf\x86','\xcf\x87','\xcf\x88','\xcf\x89'],superscript=['\xe2\x81\xb0','\xc2\xb9','\xc2\xb2','\xc2\xb3','\xe2\x81\xb4','\xe2\x81\xb5','\xe2\x81\xb6','\xe2\x81\xb7','\xe2\x81\xb8','\xe2\x81\xb9','\xe2\x81\xba','\xe2\x81\xbb','\xe2\x81\xbc','\xe2\x81\xbd','\xe2\x81\xbe','\xe2\x81\xbf','\xe2\x81\xb1'],subscript=['\xe2\x82\x80','\xe2\x82\x81','\xe2\x82\x82','\xe2\x82\x83','\xe2\x82\x84','\xe2\x82\x85','\xe2\x82\x86','\xe2\x82\x87','\xe2\x82\x88','\xe2\x82\x89','\xe2\x82\x8a','\xe2\x82\x8b','\xe2\x82\x8c','\xe2\x82\x8d','\xe2\x82\x8e','\xe2\x82\x90','\xe2\x82\x91','','\xe1\xb5\xa2','\xe2\xb1\xbc','','\xe2\x82\x92','','\xe1\xb5\xa3','\xe1\xb5\xa4','\xe1\xb5\xa5','\xe2\x82\x93','\xe2\x82\x94'],roots=['\xe2\x88\x9a','\xe2\x88\x9b','\xe2\x88\x9c'],numbers=['\xe2\x84\x95','\xe2\x84\xa4','\xe2\x84\x9a','\xe2\x84\x9d','\xe2\x84\x82','\xe2\x88\x85'],infinity=['\xe2\x88\x9e',' \xe2\xa7\x9c','\xe2\xa7\x9d','\xe2\xa7\x9e'],multdiv=['\xc3\x97','\xe2\x9c\x95','\xe2\x9c\x96','\xc3\xb7','\xe2\x88\x92','\xe2\x88\x95','\xe2\x88\x97','\xe2\x88\x98','\xe2\x88\x99','\xe2\x8b\x85','\xe2\x8b\x86'],circled=['\xe2\x8a\x95','\xe2\x8a\x96','\xe2\x8a\x97','\xe2\x8a\x98','\xe2\x8a\x99','\xe2\x8a\x9a','\xe2\x8a\x9b','\xe2\x8a\x9c','\xe2\x8a\x9d'],squared=['\xe2\x8a\x9e','\xe2\x8a\x9f','\xe2\x8a\xa0','\xe2\x8a\xa1'],elementof=['\xe2\x88\x88','\xe2\x88\x8b','\xe2\x88\x89','\xe2\x88\x8c','\xe2\x8b\xb6','\xe2\x8b\xbd','\xe2\x8b\xb2','\xe2\x8b\xba','\xe2\x8b\xb3','\xe2\x8b\xbb','\xe2\x88\x8a','\xe2\x88\x8d','\xe2\x8b\xb7','\xe2\x8b\xbe','\xe2\x8b\xb4','\xe2\x8b\xbc','\xe2\x8b\xb5','\xe2\x8b\xb8','\xe2\x8b\xb9','\xe2\xab\x99','\xe2\x9f\x92'],binary_rel=['\xe2\x8a\x82','\xe2\x8a\x83','\xe2\x8a\x86','\xe2\x8a\x87','\xe2\x8a\x88','\xe2\x8a\x89','\xe2\x8a\x8a','\xe2\x8a\x8b','\xe2\x8a\x84','\xe2\x8a\x85','\xe2\xab\x85','\xe2\xab\x86','\xe2\xab\x8b','\xe2\xab\x8c','\xe2\xab\x83','\xe2\xab\x84','\xe2\xab\x87','\xe2\xab\x88','\xe2\xab\x89','\xe2\xab\x8a','\xe2\x9f\x83','\xe2\x9f\x84','\xe2\xab\x8f','\xe2\xab\x90','\xe2\xab\x91','\xe2\xab\x92','\xe2\xab\x93','\xe2\xab\x94','\xe2\xab\x95','\xe2\xab\x96','\xe2\xab\x97'],setops=['\xe2\xab\x98','\xe2\x8b\x90','\xe2\x8b\x91','\xe2\x9f\x88','\xe2\x9f\x89','\xe2\x88\xaa','\xe2\xa9\x81','\xe2\xa9\x82','\xe2\xa9\x85','\xe2\xa9\x8c','\xe2\xa9\x8f','\xe2\xa9\x90','\xe2\x88\xa9','\xe2\xa9\x80','\xe2\xa9\x83','\xe2\xa9\x84','\xe2\xa9\x8d','\xe2\xa9\x8e',''],binops=['\xe2\x88\x96','\xe2\xa9\x86','\xe2\xa9\x87','\xe2\xa9\x88','\xe2\xa9\x89','\xe2\xa9\x8a','\xe2\xa9\x8b','\xe2\xaa\xbd','\xe2\xaa\xbe','\xe2\xaa\xbf','\xe2\xab\x80','\xe2\xab\x81','\xe2\xab\x82','\xe2\x8b\x92','\xe2\x8b\x93'],n_ops=['\xe2\x8b\x82','\xe2\x8b\x83','\xe2\x8a\x8c','\xe2\x8a\x8d','\xe2\x8a\x8e','\xe2\xa8\x83','\xe2\xa8\x84','\xe2\xa8\x85','\xe2\xa8\x86'],joins=['\xe2\xa8\x9d','\xe2\x9f\x95','\xe2\x9f\x96','\xe2\x9f\x97'],pre_succ=['\xe2\x89\xba','\xe2\x89\xbb','\xe2\x89\xbc','\xe2\x89\xbd','\xe2\x89\xbe','\xe2\x89\xbf','\xe2\x8a\x80','\xe2\x8a\x81','\xe2\x8b\x9e','\xe2\x8b\x9f','\xe2\x8b\xa0','\xe2\x8b\xa1','\xe2\x8b\xa8','\xe2\x8b\xa9','\xe2\xaa\xaf','\xe2\xaa\xb0','\xe2\xaa\xb1','\xe2\xaa\xb2','\xe2\xaa\xb3','\xe2\xaa\xb4','\xe2\xaa\xb5','\xe2\xaa\xb6','\xe2\xaa\xb7','\xe2\xaa\xb8','\xe2\xaa\xb9','\xe2\xaa\xba','\xe2\xaa\xbb','\xe2\xaa\xbc'],lt_gt=['<','>','\xe2\x89\xae','\xe2\x89\xaf','\xe2\x89\xa4','\xe2\x89\xa5','\xe2\x89\xb0','\xe2\x89\xb1','\xe2\xaa\x87','\xe2\xaa\x88','\xe2\x89\xa6','\xe2\x89\xa7','\xe2\x89\xa8','\xe2\x89\xa9'],equal_con=['\xe2\x89\x9d','\xe2\x89\x9e','\xe2\x89\x9f','\xe2\x89\xa0','\xe2\x88\xb9','\xe2\x89\x8e','\xe2\x89\x8f','\xe2\xaa\xae','\xe2\x89\x90','\xe2\x89\x91','\xe2\x89\x92','\xe2\x89\x93','\xe2\x89\x94','\xe2\x89\x95','\xe2\x89\x96','\xe2\x89\x97','\xe2\x89\x98','\xe2\x89\x99','\xe2\x89\x9a','\xe2\x89\x9b','\xe2\x89\x9c','\xe2\xa9\xac','\xe2\xa9\xad','\xe2\xa9\xae','\xe2\xa9\xb1','\xe2\xa9\xb2','\xe2\xa9\xa6','\xe2\xa9\xb4','\xe2\xa9\xb5','\xe2\xa9\xb6','\xe2\xa9\xb7','\xe2\x89\xa1','\xe2\x89\xa2','\xe2\xa9\xa7',''],ident_eq=['\xe2\x89\x8d','\xe2\x89\xad','\xe2\x89\xa3','\xe2\xa9\xb8','\xe2\x89\x81','\xe2\x89\x82','\xe2\x89\x83','\xe2\x89\x84','\xe2\x8b\x8d','\xe2\x89\x85','\xe2\x89\x86','\xe2\x89\x87','\xe2\x89\x88','\xe2\x89\x89','\xe2\x89\x8a','\xe2\x89\x8b','\xe2\x89\x8c','\xe2\xa9\xaf','\xe2\xa9\xb0'],misc_rel=['\xe2\x8a\x8f','\xe2\x8a\x90','\xe2\x8a\x91','\xe2\x8a\x92','\xe2\x8a\x93','\xe2\x8a\x94','\xe2\x8b\xa2','\xe2\x8b\xa3','\xe2\x8b\xa4','\xe2\x8b\xa5','\xe2\xab\xb4','\xe2\xab\xb5'],logic=['\xc2\xac','\xe2\xab\xac','\xe2\xab\xad','\xe2\x8a\xa8','\xe2\x8a\xad','\xe2\x88\x80','\xe2\x88\x81','\xe2\x88\x83','\xe2\x88\x84','\xe2\x88\xb4','\xe2\x88\xb5','\xe2\x8a\xa6','\xe2\x8a\xac','\xe2\x8a\xa7','\xe2\x8a\xa9','\xe2\x8a\xae','\xe2\x8a\xab','\xe2\x8a\xaf','\xe2\x8a\xaa','\xe2\x8a\xb0','\xe2\x8a\xb1'],logic_binary=['\xe2\x88\xa7','\xe2\x88\xa8','\xe2\x8a\xbb','\xe2\x8a\xbc','\xe2\x8a\xbd','\xe2\x8b\x8e','\xe2\x8b\x8f','\xe2\x9f\x91','\xe2\x9f\x87','\xe2\xa9\x91','\xe2\xa9\x92','\xe2\xa9\x93','\xe2\xa9\x94','\xe2\xa9\x95','\xe2\xa9\x96','\xe2\xa9\x97','\xe2\xa9\x98','\xe2\xa9\x99','\xe2\xa9\x9a','\xe2\xa9\x9b','\xe2\xa9\x9c','\xe2\xa9\x9d','\xe2\xa9\x9e','\xe2\xa9\x9f','\xe2\xa9\xa0','\xe2\xa9\xa2','\xe2\xa9\xa3','\xe2\xa8\x87','\xe2\xa8\x88'],logic_nary=['\xe2\x8b\x80','\xe2\x8b\x81'],misc_indics=['\xe2\x88\x8e','\xc2\xb1','\xe2\x88\x93','\xe2\x8b\xae','\xe2\x8b\xaf','\xe2\x8b\xb0','\xe2\x8b\xb1'],ratio=['\xe2\x88\x9d','\xe2\x88\xb6','\xe2\x88\xb7','\xe2\x88\xba'],angles=['\xe2\xa6\x9c','\xe2\x88\x9f','\xe2\x8a\xbe','\xe2\xa6\x9d','\xe2\x8a\xbf','\xe2\x88\xa0','\xe2\x88\xa1','\xe2\xa6\x9b','\xe2\xa6\x9e','\xe2\xa6\x9f','\xe2\xa6\xa2','\xe2\xa6\xa3','\xe2\xa6\xa4','\xe2\xa6\xa5','\xe2\xa6\xa6','\xe2\xa6\xa7','\xe2\xa6\xa8','\xe2\xa6\xa9','\xe2\xa6\xaa','\xe2\xa6\xab','\xe2\xa6\xac','\xe2\xa6\xad','\xe2\xa6\xae','\xe2\xa6\xaf','\xe2\xa6\x93','\xe2\xa6\x94','\xe2\xa6\x95','\xe2\xa6\x96','\xe2\x9f\x80'],misc_prod=['\xe2\x89\x80','\xe2\xa8\xbf','\xe2\xa8\xbc','\xe2\xa8\xbd','\xe2\xa7\xa2','\xe2\x8b\x89','\xe2\x8b\x8a','\xe2\x8b\x8b','\xe2\x8b\x8c'],misc_nary=['\xe2\x88\x91','\xe2\xa8\x8a','\xe2\xa8\x81','\xe2\xa8\x80','\xe2\xa8\x82','\xe2\x88\x8f','\xe2\x88\x90','\xe2\xa8\x89'],single_arrows=['\xe2\x86\x90','\xe2\x86\x92','\xe2\x86\x91','\xe2\x86\x93','\xe2\x86\x94','\xe2\x86\x95','\xe2\x86\x96','\xe2\x86\x97','\xe2\x86\x98','\xe2\x86\x99','\xe2\x86\x9a','\xe2\x86\x9b','\xe2\x86\xae','\xe2\x9f\xb5','\xe2\x9f\xb6','\xe2\x9f\xb7'],double_arrows=['\xe2\x87\x90','\xe2\x87\x92','\xe2\x87\x91','\xe2\x87\x93','\xe2\x87\x94','\xe2\x87\x95','\xe2\x87\x96','\xe2\x87\x97','\xe2\x87\x98','\xe2\x87\x99','\xe2\x87\x8d','\xe2\x87\x8f','\xe2\x87\x8e','\xe2\x9f\xb8','\xe2\x9f\xb9','\xe2\x9f\xba'],misc_arrows=['\xe2\x87\x86','\xe2\x87\x84','\xe2\x87\x85','\xe2\x87\xb5','\xe2\x87\x88','\xe2\x87\x8a','\xe2\x87\x87','\xe2\x87\x89'],ascii_brackets=['\xe2\x9f\xa6','\xe2\x9f\xa7','\xe2\x9f\xa8','\xe2\x9f\xa9','\xe2\x9f\xaa','\xe2\x9f\xab','\xe2\x9f\xae','\xe2\x9f\xaf','\xe2\x9f\xac','\xe2\x9f\xad','\xe2\x8c\x88','\xe2\x8c\x89','\xe2\x8c\x8a','\xe2\x8c\x8b','\xe2\xa6\x87','\xe2\xa6\x88','\xe2\xa6\x89','\xe2\xa6\x8a'],full_brackets=['\xef\xbc\x88','\xef\xbc\x89','\xef\xbc\xbb','\xef\xbc\xbd','\xef\xbd\x9b','\xef\xbd\x9d','\xef\xbd\x9f','\xef\xbd\xa0'],math_brackets=['\xe2\x9f\xa6','\xe2\x9f\xa7','\xe2\x9f\xa8','\xe2\x9f\xa9','\xe2\x9f\xaa','\xe2\x9f\xab','\xe2\x9f\xae','\xe2\x9f\xaf','\xe2\x9f\xac','\xe2\x9f\xad','\xe2\x8c\x88','\xe2\x8c\x89','\xe2\x8c\x8a','\xe2\x8c\x8b','\xe2\xa6\x87','\xe2\xa6\x88','\xe2\xa6\x89','\xe2\xa6\x8a'])"
p94
sI155
S'    i = 0'
p95
sI156
S'    for key in sets:'
p96
sI157
S'        cur_grp = key'
p97
sI158
S'        for chr in sets[key]:'
p98
sI159
S'            db.symchar.insert(grp=key,chr=chr)'
p99
ssg83
S'()'
p100
sg85
S'<module>'
p101
sa(dp102
g62
S'/Users/admin/web2py/gluon/globals.py'
p103
sg64
(dp104
S'self'
p105
S'undefined'
p106
sS'f'
S'<function append_txt>'
p107
ssg70
I412
sg71
(dp108
I416
S"        self.generic_patterns = ['*']"
p109
sI407
S"        self.flash = ''            # used by the default view layout"
p110
sI408
S'        self.meta = Storage()      # used by web2py_ajax.html'
p111
sI409
S'        self.menu = []             # used by the default view layout'
p112
sI410
S'        self.files = []            # used by web2py_ajax.html'
p113
sI411
S'        self._vars = None'
p114
sI412
S'        self._caller = lambda f: f()'
p115
sI413
S'        self._view_environment = None'
p116
sI414
S'        self._custom_commit = None'
p117
sI415
S'        self._custom_rollback = None'
p118
ssg83
S'(f=<function append_txt>)'
p119
sg85
S'<lambda>'
p120
sa(dp121
g62
S'/Users/admin/web2py/gluon/tools.py'
p122
sg64
(dp123
S'action'
p124
S'<function append_txt>'
p125
sS'a'
S'()'
p126
sS'b'
g45
ssg70
I3774
sg71
(dp127
I3776
S'            f.__name__ = action.__name__'
p128
sI3777
S'            f.__dict__.update(action.__dict__)'
p129
sI3778
S'            return f'
p130
sI3769
S'                    flag = condition'
p131
sI3770
S'                if not flag:'
p132
sI3771
S'                    current.session.flash = self.messages.access_denied'
p133
sI3772
S'                    return call_or_redirect('
p134
sI3773
S'                        self.settings.on_failed_authorization)'
p135
sI3774
S'                return action(*a, **b)'
p136
sI3775
S'            f.__doc__ = action.__doc__'
p137
ssg83
S'(*a=(), **b={})'
p138
sg85
S'f'
sa(dp139
g62
S'/Users/admin/web2py/applications/editex/controllers/compose.py'
p140
sg64
(dp141
S'form.process'
p142
S'<bound method SQLFORM.process of <gluon.sqlhtml.SQLFORM object>>'
p143
sS').accepted'
p144
g106
sS'form'
p145
S'<gluon.sqlhtml.SQLFORM object>'
p146
ssg70
I65
sg71
(dp147
I64
S'        form.vars.parent_id=session.pnum'
p148
sI65
S'    if form.process().accepted:'
p149
sI66
S"        response.flash='record added'"
p150
sI67
S"        redirect(URL('compose','view_problems', args=form.vars.section_id),client_side=True)"
p151
sI68
S'    return dict(form=form)'
p152
sI69
S''
sI60
S"    form = SQLFORM(db.part,formstyle='divs',fields=['body','image'],hidden=['parent_id','section_id'],labels={'body':''})"
p153
sI61
S'    if len(request.args)>0:'
p154
sI62
S'        form.vars.parent_id=request.args(0)'
p155
sI63
S'    else:'
p156
ssg83
S'()'
p157
sg85
S'append_txt'
p158
sa(dp159
g62
S'/Users/admin/web2py/gluon/html.py'
p160
sg64
(dp161
S'self'
p162
S'<gluon.sqlhtml.SQLFORM object>'
p163
sS'self.validate'
p164
S'<bound method SQLFORM.validate of <gluon.sqlhtml.SQLFORM object>>'
p165
sS'kwargs'
p166
S"{'dbio': True}"
p167
ssg70
I2301
sg71
(dp168
I2304
S'    REDIRECT_JS = "window.location=\'%s\';return false"'
p169
sI2305
S''
sI2296
S''
sI2297
S''
sI2298
S'        """'
p170
sI2299
S"        kwargs['dbio'] = kwargs.get('dbio', True)"
p171
sI2300
S'                                    # necessary for SQLHTML forms'
p172
sI2301
S'        self.validate(**kwargs)'
p173
sI2302
S'        return self'
p174
sI2303
S''
ssg83
S"(self=<gluon.sqlhtml.SQLFORM object>, **kwargs={'dbio': True})"
p175
sg85
S'process'
p176
sa(dp177
g62
S'/Users/admin/web2py/gluon/html.py'
p178
sg64
(dp179
S'self'
p180
S'<gluon.sqlhtml.SQLFORM object>'
p181
sS'self.accepts'
p182
S'<bound method SQLFORM.accepts of <gluon.sqlhtml.SQLFORM object>>'
p183
sS'kwargs'
p184
S"{'dbio': True, 'request_vars': <Storage {}>, 'session': <Storage {'_formkey[symchar/119]': ['c2722933-4e...b14bc', '42f79019-ab37-46c0-a3ec-4f228979af12']}>}"
p185
ssg70
I2238
sg71
(dp186
I2240
S'                if next:'
p187
sI2241
S'                    current.session.flash = message_onsuccess'
p188
sI2242
S'                else:'
p189
sI2233
S"        for key in ('message_onsuccess', 'message_onfailure', 'onsuccess',"
p190
sI2234
S"                    'onfailure', 'next', 'message_onchange', 'onchange'):"
p191
sI2235
S'            if key in kwargs:'
p192
sI2236
S'                del kwargs[key]'
p193
sI2237
S''
sI2238
S'        if self.accepts(**kwargs):'
p194
sI2239
S"            if onsuccess == 'flash':"
p195
ssg83
S"(self=<gluon.sqlhtml.SQLFORM object>, **kwargs={'dbio': True, 'request_vars': <Storage {}>, 'session': <Storage {'_formkey[symchar/119]': ['c2722933-4e...b14bc', '42f79019-ab37-46c0-a3ec-4f228979af12']}>})"
p196
sg85
S'validate'
p197
sa(dp198
g62
S'/Users/admin/web2py/gluon/sqlhtml.py'
p199
sg64
(dp200
S'self'
p201
S'<gluon.sqlhtml.SQLFORM object>'
p202
sS'global CAT'
p203
S"<class 'gluon.html.CAT'>"
p204
sS'self.hidden_fields'
p205
S'<bound method SQLFORM.hidden_fields of <gluon.sqlhtml.SQLFORM object>>'
p206
sS'self.custom'
p207
S"<Storage {'comment': <Storage {'body': '', 'imag...html.XML object at 0x112a78a90>}>, 'delete': ''}>"
p208
sS'self.custom.end'
p209
S'<gluon.html.XML object>'
p210
ssg70
I1501
sg71
(dp211
I1504
S''
sI1505
S'        if self.record_changed and self.detect_record_change:'
p212
sI1496
S'        )'
p213
sI1497
S''
sI1498
S'        self.deleted = \\'
p214
sI1499
S'            request_vars.get(self.FIELDNAME_REQUEST_DELETE, False)'
p215
sI1500
S''
sI1501
S'        self.custom.end = CAT(self.hidden_fields(), self.custom.end)'
p216
sI1502
S''
sI1503
S'        auch = record_id and self.errors and self.deleted'
p217
ssg83
S"(self=<gluon.sqlhtml.SQLFORM object>, request_vars=<Storage {}>, session=<Storage {'_formkey[symchar/119]': ['c2722933-4e...b14bc', '42f79019-ab37-46c0-a3ec-4f228979af12']}>, formname='part/create', keepvalues=False, onvalidation=None, dbio=True, hideerror=False, detect_record_change=False, **kwargs={})"
p218
sg85
S'accepts'
p219
sa(dp220
g62
S'/Users/admin/web2py/gluon/html.py'
p221
sg64
(dp222
S'attr.iteritems'
p223
g106
sS'value'
p224
g106
sS'key'
p225
g106
sS'attr'
p226
S"['parent_id', 'section_id']"
p227
ssg70
I2168
sg71
(dp228
I2163
S'    def hidden_fields(self):'
p229
sI2164
S'        c = []'
p230
sI2165
S"        attr = self.attributes.get('hidden', {})"
p231
sI2166
S"        if 'hidden' in self.attributes:"
p232
sI2167
S"            c = [INPUT(_type='hidden', _name=key, _value=value)"
p233
sI2168
S'                 for (key, value) in attr.iteritems()]'
p234
sI2169
S"        if hasattr(self, 'formkey') and self.formkey:"
p235
sI2170
S"            c.append(INPUT(_type='hidden', _name='_formkey',"
p236
sI2171
S'                     _value=self.formkey))'
p237
sI2172
S"        if hasattr(self, 'formname') and self.formname:"
p238
ssg83
S'(self=<gluon.sqlhtml.SQLFORM object>)'
p239
sg85
S'hidden_fields'
p240
sasS'pyver'
p241
S'Python 2.7.10: /usr/bin/python (prefix: /System/Library/Frameworks/Python.framework/Versions/2.7)'
p242
sS'session'
p243
g57
(S's6\x11\x00\x00<div><table><tr><td style="font-weight:bold;vertical-align:top;">active_section</td><td style="vertical-align:top;">:</td><td><div></div></td></tr><tr><td style="font-weight:bold;vertical-align:top;">active_sid</td><td style="vertical-align:top;">:</td><td><div></div></td></tr><tr><td style="font-weight:bold;vertical-align:top;">auth</td><td style="vertical-align:top;">:</td><td><div><table><tr><td style="font-weight:bold;vertical-align:top;">expiration</td><td style="vertical-align:top;">:</td><td><div>2592000</div></td></tr><tr><td style="font-weight:bold;vertical-align:top;">hmac_key</td><td style="vertical-align:top;">:</td><td><div>c4c4a9ff-68ca-4f64-b360-d2fa04c20c4c</div></td></tr><tr><td style="font-weight:bold;vertical-align:top;">last_visit</td><td style="vertical-align:top;">:</td><td><div>datetime.datetime(2016, 3, 19, 20, 23, 20, 808772)</div></td></tr><tr><td style="font-weight:bold;vertical-align:top;">remember_me</td><td style="vertical-align:top;">:</td><td><div>True</div></td></tr><tr><td style="font-weight:bold;vertical-align:top;">user</td><td style="vertical-align:top;">:</td><td><div><table><tr><td style="font-weight:bold;vertical-align:top;">email</td><td style="vertical-align:top;">:</td><td><div>jeanpaulsc@gmail.com</div></td></tr><tr><td style="font-weight:bold;vertical-align:top;">first_name</td><td style="vertical-align:top;">:</td><td><div>Jean-Paul</div></td></tr><tr><td style="font-weight:bold;vertical-align:top;">id</td><td style="vertical-align:top;">:</td><td><div>3L</div></td></tr><tr><td style="font-weight:bold;vertical-align:top;">last_name</td><td style="vertical-align:top;">:</td><td><div>McCoy</div></td></tr><tr><td style="font-weight:bold;vertical-align:top;">registration_id</td><td style="vertical-align:top;">:</td><td><div></div></td></tr><tr><td style="font-weight:bold;vertical-align:top;">registration_key</td><td style="vertical-align:top;">:</td><td><div></div></td></tr><tr><td style="font-weight:bold;vertical-align:top;">reset_password_key</td><td style="vertical-align:top;">:</td><td><div></div></td></tr></table></div></td></tr><tr><td style="font-weight:bold;vertical-align:top;">user_groups</td><td style="vertical-align:top;">:</td><td><div><table><tr><td style="font-weight:bold;vertical-align:top;">3</td><td style="vertical-align:top;">:</td><td><div>student</div></td></tr></table></div></td></tr></table></div></td></tr><tr><td style="font-weight:bold;vertical-align:top;">flash</td><td style="vertical-align:top;">:</td><td><div>None</div></td></tr><tr><td style="font-weight:bold;vertical-align:top;">last_orderby</td><td style="vertical-align:top;">:</td><td><div>None</div></td></tr><tr><td style="font-weight:bold;vertical-align:top;">last_query</td><td style="vertical-align:top;">:</td><td><div>db.symchar.id&gt;0</div></td></tr><tr><td style="font-weight:bold;vertical-align:top;">part</td><td style="vertical-align:top;">:</td><td><div>b</div></td></tr><tr><td style="font-weight:bold;vertical-align:top;">pid</td><td style="vertical-align:top;">:</td><td><div></div></td></tr><tr><td style="font-weight:bold;vertical-align:top;">pnum</td><td style="vertical-align:top;">:</td><td><div>3</div></td></tr><tr><td style="font-weight:bold;vertical-align:top;">section</td><td style="vertical-align:top;">:</td><td><div><table><tr><td style="font-weight:bold;vertical-align:top;">auth_id</td><td style="vertical-align:top;">:</td><td><div>1L</div></td></tr><tr><td style="font-weight:bold;vertical-align:top;">delete_record</td><td style="vertical-align:top;">:</td><td><div>&lt;pydal.helpers.classes.RecordDeleter object at 0x112ca1f90&gt;</div></td></tr><tr><td style="font-weight:bold;vertical-align:top;">id</td><td style="vertical-align:top;">:</td><td><div>1L</div></td></tr><tr><td style="font-weight:bold;vertical-align:top;">sid</td><td style="vertical-align:top;">:</td><td><div>1</div></td></tr><tr><td style="font-weight:bold;vertical-align:top;">title</td><td style="vertical-align:top;">:</td><td><div>Homework 1</div></td></tr><tr><td style="font-weight:bold;vertical-align:top;">update_record</td><td style="vertical-align:top;">:</td><td><div>&lt;pydal.helpers.classes.RecordUpdater object at 0x112ca10d0&gt;</div></td></tr></table></div></td></tr><tr><td style="font-weight:bold;vertical-align:top;">seg_cat</td><td style="vertical-align:top;">:</td><td><div>tex</div></td></tr></table></div>'
tRp244
sS'etype'
p245
S"<type 'exceptions.AttributeError'>"
p246
sS'date'
p247
S'Tue Mar 29 16:52:51 2016'
p248
sS'response'
p249
g57
(S'sz?\x00\x00<div><table><tr><td style="font-weight:bold;vertical-align:top;">body</td><td style="vertical-align:top;">:</td><td><div>&lt;cStringIO.StringO object at 0x11333b110&gt;</div></td></tr><tr><td style="font-weight:bold;vertical-align:top;">cookies</td><td style="vertical-align:top;">:</td><td><div><table><tr><td style="font-weight:bold;vertical-align:top;">session_id_editex</td><td style="vertical-align:top;">:</td><td><div>127.0.0.1-90b1c556-5708-4fef-aa66-3ccd848ca38b<table><tr><td style="font-weight:bold;vertical-align:top;">comment</td><td style="vertical-align:top;">:</td><td><div></div></td></tr><tr><td style="font-weight:bold;vertical-align:top;">domain</td><td style="vertical-align:top;">:</td><td><div></div></td></tr><tr><td style="font-weight:bold;vertical-align:top;">expires</td><td style="vertical-align:top;">:</td><td><div></div></td></tr><tr><td style="font-weight:bold;vertical-align:top;">httponly</td><td style="vertical-align:top;">:</td><td><div></div></td></tr><tr><td style="font-weight:bold;vertical-align:top;">max-age</td><td style="vertical-align:top;">:</td><td><div></div></td></tr><tr><td style="font-weight:bold;vertical-align:top;">path</td><td style="vertical-align:top;">:</td><td><div>/</div></td></tr><tr><td style="font-weight:bold;vertical-align:top;">secure</td><td style="vertical-align:top;">:</td><td><div></div></td></tr><tr><td style="font-weight:bold;vertical-align:top;">version</td><td style="vertical-align:top;">:</td><td><div></div></td></tr></table></div></td></tr></table></div></td></tr><tr><td style="font-weight:bold;vertical-align:top;">delimiters</td><td style="vertical-align:top;">:</td><td><div><table><tr><td><div>{{</div></td></tr><tr><td><div>}}</div></td></tr></table></div></td></tr><tr><td style="font-weight:bold;vertical-align:top;">files</td><td style="vertical-align:top;">:</td><td><div><table></table></div></td></tr><tr><td style="font-weight:bold;vertical-align:top;">flash</td><td style="vertical-align:top;">:</td><td><div></div></td></tr><tr><td style="font-weight:bold;vertical-align:top;">form_label_separator</td><td style="vertical-align:top;">:</td><td><div></div></td></tr><tr><td style="font-weight:bold;vertical-align:top;">formstyle</td><td style="vertical-align:top;">:</td><td><div>bootstrap3_inline</div></td></tr><tr><td style="font-weight:bold;vertical-align:top;">generic_patterns</td><td style="vertical-align:top;">:</td><td><div><table><tr><td><div>*</div></td></tr></table></div></td></tr><tr><td style="font-weight:bold;vertical-align:top;">google_analytics_id</td><td style="vertical-align:top;">:</td><td><div>None</div></td></tr><tr><td style="font-weight:bold;vertical-align:top;">headers</td><td style="vertical-align:top;">:</td><td><div><table><tr><td style="font-weight:bold;vertical-align:top;">X-Powered-By</td><td style="vertical-align:top;">:</td><td><div>web2py</div></td></tr></table></div></td></tr><tr><td style="font-weight:bold;vertical-align:top;">logo</td><td style="vertical-align:top;">:</td><td><div><a class="navbar-brand" href="http://www.web2py.com/" id="web2py-logo"><b>web<span>2</span>py</b>&trade;&nbsp;</a></div></td></tr><tr><td style="font-weight:bold;vertical-align:top;">menu</td><td style="vertical-align:top;">:</td><td><div><table><tr><td><div><table><tr><td><div>Home</div></td></tr><tr><td><div>False</div></td></tr><tr><td><div>/editex/default/index</div></td></tr><tr><td><div><table></table></div></td></tr></table></div></td></tr><tr><td><div><table><tr><td><div>My Sites</div></td></tr><tr><td><div>False</div></td></tr><tr><td><div>/admin/default/site</div></td></tr></table></div></td></tr><tr><td><div><table><tr><td><div>This App</div></td></tr><tr><td><div>False</div></td></tr><tr><td><div>#</div></td></tr><tr><td><div><table><tr><td><div><table><tr><td><div>Design</div></td></tr><tr><td><div>False</div></td></tr><tr><td><div>/admin/default/design/editex</div></td></tr></table></div></td></tr><tr><td><div><li class="divider"></li></div></td></tr><tr><td><div><table><tr><td><div>Controller</div></td></tr><tr><td><div>False</div></td></tr><tr><td><div>/admin/default/edit/editex/controllers/compose.py</div></td></tr></table></div></td></tr><tr><td><div><table><tr><td><div>View</div></td></tr><tr><td><div>False</div></td></tr><tr><td><div>/admin/default/edit/editex/views/compose/append_txt.html</div></td></tr></table></div></td></tr><tr><td><div><table><tr><td><div>DB Model</div></td></tr><tr><td><div>False</div></td></tr><tr><td><div>/admin/default/edit/editex/models/db.py</div></td></tr></table></div></td></tr><tr><td><div><table><tr><td><div>Menu Model</div></td></tr><tr><td><div>False</div></td></tr><tr><td><div>/admin/default/edit/editex/models/menu.py</div></td></tr></table></div></td></tr><tr><td><div><table><tr><td><div>Config.ini</div></td></tr><tr><td><div>False</div></td></tr><tr><td><div>/admin/default/edit/editex/private/appconfig.ini</div></td></tr></table></div></td></tr><tr><td><div><table><tr><td><div>Layout</div></td></tr><tr><td><div>False</div></td></tr><tr><td><div>/admin/default/edit/editex/views/layout.html</div></td></tr></table></div></td></tr><tr><td><div><table><tr><td><div>Stylesheet</div></td></tr><tr><td><div>False</div></td></tr><tr><td><div>/admin/default/edit/editex/static/css/web2py-bootstrap3.css</div></td></tr></table></div></td></tr><tr><td><div><table><tr><td><div>Database</div></td></tr><tr><td><div>False</div></td></tr><tr><td><div>/editex/appadmin/index</div></td></tr></table></div></td></tr><tr><td><div><table><tr><td><div>Errors</div></td></tr><tr><td><div>False</div></td></tr><tr><td><div>/admin/default/errors/editex</div></td></tr></table></div></td></tr><tr><td><div><table><tr><td><div>About</div></td></tr><tr><td><div>False</div></td></tr><tr><td><div>/admin/default/about/editex</div></td></tr></table></div></td></tr></table></div></td></tr></table></div></td></tr><tr><td><div><table><tr><td><div>web2py.com</div></td></tr><tr><td><div>False</div></td></tr><tr><td><div>#</div></td></tr><tr><td><div><table><tr><td><div><table><tr><td><div>Download</div></td></tr><tr><td><div>False</div></td></tr><tr><td><div>http://www.web2py.com/examples/default/download</div></td></tr></table></div></td></tr><tr><td><div><table><tr><td><div>Support</div></td></tr><tr><td><div>False</div></td></tr><tr><td><div>http://www.web2py.com/examples/default/support</div></td></tr></table></div></td></tr><tr><td><div><table><tr><td><div>Demo</div></td></tr><tr><td><div>False</div></td></tr><tr><td><div>http://web2py.com/demo_admin</div></td></tr></table></div></td></tr><tr><td><div><table><tr><td><div>Quick Examples</div></td></tr><tr><td><div>False</div></td></tr><tr><td><div>http://web2py.com/examples/default/examples</div></td></tr></table></div></td></tr><tr><td><div><table><tr><td><div>FAQ</div></td></tr><tr><td><div>False</div></td></tr><tr><td><div>http://web2py.com/AlterEgo</div></td></tr></table></div></td></tr><tr><td><div><table><tr><td><div>Videos</div></td></tr><tr><td><div>False</div></td></tr><tr><td><div>http://www.web2py.com/examples/default/videos/</div></td></tr></table></div></td></tr><tr><td><div><table><tr><td><div>Free Applications</div></td></tr><tr><td><div>False</div></td></tr><tr><td><div>http://web2py.com/appliances</div></td></tr></table></div></td></tr><tr><td><div><table><tr><td><div>Plugins</div></td></tr><tr><td><div>False</div></td></tr><tr><td><div>http://web2py.com/plugins</div></td></tr></table></div></td></tr><tr><td><div><table><tr><td><div>Recipes</div></td></tr><tr><td><div>False</div></td></tr><tr><td><div>http://web2pyslices.com/</div></td></tr></table></div></td></tr></table></div></td></tr></table></div></td></tr><tr><td><div><table><tr><td><div>Documentation</div></td></tr><tr><td><div>False</div></td></tr><tr><td><div>#</div></td></tr><tr><td><div><table><tr><td><div><table><tr><td><div>Online book</div></td></tr><tr><td><div>False</div></td></tr><tr><td><div>http://www.web2py.com/book</div></td></tr></table></div></td></tr><tr><td><div><li class="divider"></li></div></td></tr><tr><td><div><table><tr><td><div>Preface</div></td></tr><tr><td><div>False</div></td></tr><tr><td><div>http://www.web2py.com/book/default/chapter/00</div></td></tr></table></div></td></tr><tr><td><div><table><tr><td><div>Introduction</div></td></tr><tr><td><div>False</div></td></tr><tr><td><div>http://www.web2py.com/book/default/chapter/01</div></td></tr></table></div></td></tr><tr><td><div><table><tr><td><div>Python</div></td></tr><tr><td><div>False</div></td></tr><tr><td><div>http://www.web2py.com/book/default/chapter/02</div></td></tr></table></div></td></tr><tr><td><div><table><tr><td><div>Overview</div></td></tr><tr><td><div>False</div></td></tr><tr><td><div>http://www.web2py.com/book/default/chapter/03</div></td></tr></table></div></td></tr><tr><td><div><table><tr><td><div>The Core</div></td></tr><tr><td><div>False</div></td></tr><tr><td><div>http://www.web2py.com/book/default/chapter/04</div></td></tr></table></div></td></tr><tr><td><div><table><tr><td><div>The Views</div></td></tr><tr><td><div>False</div></td></tr><tr><td><div>http://www.web2py.com/book/default/chapter/05</div></td></tr></table></div></td></tr><tr><td><div><table><tr><td><div>Database</div></td></tr><tr><td><div>False</div></td></tr><tr><td><div>http://www.web2py.com/book/default/chapter/06</div></td></tr></table></div></td></tr><tr><td><div><table><tr><td><div>Forms and Validators</div></td></tr><tr><td><div>False</div></td></tr><tr><td><div>http://www.web2py.com/book/default/chapter/07</div></td></tr></table></div></td></tr><tr><td><div><table><tr><td><div>Email and SMS</div></td></tr><tr><td><div>False</div></td></tr><tr><td><div>http://www.web2py.com/book/default/chapter/08</div></td></tr></table></div></td></tr><tr><td><div><table><tr><td><div>Access Control</div></td></tr><tr><td><div>False</div></td></tr><tr><td><div>http://www.web2py.com/book/default/chapter/09</div></td></tr></table></div></td></tr><tr><td><div><table><tr><td><div>Services</div></td></tr><tr><td><div>False</div></td></tr><tr><td><div>http://www.web2py.com/book/default/chapter/10</div></td></tr></table></div></td></tr><tr><td><div><table><tr><td><div>Ajax Recipes</div></td></tr><tr><td><div>False</div></td></tr><tr><td><div>http://www.web2py.com/book/default/chapter/11</div></td></tr></table></div></td></tr><tr><td><div><table><tr><td><div>Components and Plugins</div></td></tr><tr><td><div>False</div></td></tr><tr><td><div>http://www.web2py.com/book/default/chapter/12</div></td></tr></table></div></td></tr><tr><td><div><table><tr><td><div>Deployment Recipes</div></td></tr><tr><td><div>False</div></td></tr><tr><td><div>http://www.web2py.com/book/default/chapter/13</div></td></tr></table></div></td></tr><tr><td><div><table><tr><td><div>Other Recipes</div></td></tr><tr><td><div>False</div></td></tr><tr><td><div>http://www.web2py.com/book/default/chapter/14</div></td></tr></table></div></td></tr><tr><td><div><table><tr><td><div>Helping web2py</div></td></tr><tr><td><div>False</div></td></tr><tr><td><div>http://www.web2py.com/book/default/chapter/15</div></td></tr></table></div></td></tr><tr><td><div><table><tr><td><div>Buy web2py\'s book</div></td></tr><tr><td><div>False</div></td></tr><tr><td><div>http://stores.lulu.com/web2py</div></td></tr></table></div></td></tr></table></div></td></tr></table></div></td></tr><tr><td><div><table><tr><td><div>Community</div></td></tr><tr><td><div>False</div></td></tr><tr><td><div>None</div></td></tr><tr><td><div><table><tr><td><div><table><tr><td><div>Groups</div></td></tr><tr><td><div>False</div></td></tr><tr><td><div>http://www.web2py.com/examples/default/usergroups</div></td></tr></table></div></td></tr><tr><td><div><table><tr><td><div>Twitter</div></td></tr><tr><td><div>False</div></td></tr><tr><td><div>http://twitter.com/web2py</div></td></tr></table></div></td></tr><tr><td><div><table><tr><td><div>Live Chat</div></td></tr><tr><td><div>False</div></td></tr><tr><td><div>http://webchat.freenode.net/?channels=web2py</div></td></tr></table></div></td></tr></table></div></td></tr></table></div></td></tr></table></div></td></tr><tr><td style="font-weight:bold;vertical-align:top;">meta</td><td style="vertical-align:top;">:</td><td><div><table><tr><td style="font-weight:bold;vertical-align:top;">author</td><td style="vertical-align:top;">:</td><td><div>Your Name &lt;you@example.com&gt;</div></td></tr><tr><td style="font-weight:bold;vertical-align:top;">description</td><td style="vertical-align:top;">:</td><td><div>a cool new app</div></td></tr><tr><td style="font-weight:bold;vertical-align:top;">generator</td><td style="vertical-align:top;">:</td><td><div>Web2py Web Framework</div></td></tr><tr><td style="font-weight:bold;vertical-align:top;">keywords</td><td style="vertical-align:top;">:</td><td><div>web2py, python, framework</div></td></tr></table></div></td></tr><tr><td style="font-weight:bold;vertical-align:top;">models_to_run</td><td style="vertical-align:top;">:</td><td><div><table><tr><td><div>^\\w+\\.py$</div></td></tr><tr><td><div>^compose/\\w+\\.py$</div></td></tr><tr><td><div>^compose/append_txt/\\w+\\.py$</div></td></tr></table></div></td></tr><tr><td style="font-weight:bold;vertical-align:top;">postprocessing</td><td style="vertical-align:top;">:</td><td><div><table></table></div></td></tr><tr><td style="font-weight:bold;vertical-align:top;">session_client</td><td style="vertical-align:top;">:</td><td><div>127.0.0.1</div></td></tr><tr><td style="font-weight:bold;vertical-align:top;">session_cookie_compression_level</td><td style="vertical-align:top;">:</td><td><div>None</div></td></tr><tr><td style="font-weight:bold;vertical-align:top;">session_cookie_expires</td><td style="vertical-align:top;">:</td><td><div>2592000</div></td></tr><tr><td style="font-weight:bold;vertical-align:top;">session_cookie_key</td><td style="vertical-align:top;">:</td><td><div>None</div></td></tr><tr><td style="font-weight:bold;vertical-align:top;">session_data_name</td><td style="vertical-align:top;">:</td><td><div>session_data_editex</div></td></tr><tr><td style="font-weight:bold;vertical-align:top;">session_file</td><td style="vertical-align:top;">:</td><td><div>&lt;open file &#x27;/Users/admin/web2py/applications/editex/sessions/0a1/1ca/127.0.0.1-90b1c556-5708-4fef-aa66-3ccd848ca38b&#x27;, mode &#x27;rb+&#x27; at 0x112c68300&gt;</div></td></tr><tr><td style="font-weight:bold;vertical-align:top;">session_filename</td><td style="vertical-align:top;">:</td><td><div>/Users/admin/web2py/applications/editex/sessions/127.0.0.1-90b1c556-5708-4fef-aa66-3ccd848ca38b</div></td></tr><tr><td style="font-weight:bold;vertical-align:top;">session_hash</td><td style="vertical-align:top;">:</td><td><div>16e5cbbd45698922729019d3d69157ac</div></td></tr><tr><td style="font-weight:bold;vertical-align:top;">session_id</td><td style="vertical-align:top;">:</td><td><div>127.0.0.1-90b1c556-5708-4fef-aa66-3ccd848ca38b</div></td></tr><tr><td style="font-weight:bold;vertical-align:top;">session_id_name</td><td style="vertical-align:top;">:</td><td><div>session_id_editex</div></td></tr><tr><td style="font-weight:bold;vertical-align:top;">session_locked</td><td style="vertical-align:top;">:</td><td><div>True</div></td></tr><tr><td style="font-weight:bold;vertical-align:top;">session_masterapp</td><td style="vertical-align:top;">:</td><td><div>editex</div></td></tr><tr><td style="font-weight:bold;vertical-align:top;">session_new</td><td style="vertical-align:top;">:</td><td><div>False</div></td></tr><tr><td style="font-weight:bold;vertical-align:top;">session_storage_type</td><td style="vertical-align:top;">:</td><td><div>file</div></td></tr><tr><td style="font-weight:bold;vertical-align:top;">status</td><td style="vertical-align:top;">:</td><td><div>200</div></td></tr><tr><td style="font-weight:bold;vertical-align:top;">subtitle</td><td style="vertical-align:top;">:</td><td><div></div></td></tr><tr><td style="font-weight:bold;vertical-align:top;">title</td><td style="vertical-align:top;">:</td><td><div>Editex</div></td></tr><tr><td style="font-weight:bold;vertical-align:top;">view</td><td style="vertical-align:top;">:</td><td><div>compose/append_txt.html</div></td></tr></table></div>'
tRp250
sS'locals'
p251
(dp252
S'c'
S'[]'
p253
sS'attr'
p254
S"['parent_id', 'section_id']"
p255
sS'self'
p256
S'<gluon.sqlhtml.SQLFORM object>'
p257
sssS'traceback'
p258
S'Traceback (most recent call last):\n  File "/Users/admin/web2py/gluon/restricted.py", line 227, in restricted\n    exec ccode in environment\n  File "/Users/admin/web2py/applications/editex/controllers/compose.py", line 162, in <module>\n  File "/Users/admin/web2py/gluon/globals.py", line 412, in <lambda>\n    self._caller = lambda f: f()\n  File "/Users/admin/web2py/gluon/tools.py", line 3774, in f\n    return action(*a, **b)\n  File "/Users/admin/web2py/applications/editex/controllers/compose.py", line 65, in append_txt\n    if form.process().accepted:\n  File "/Users/admin/web2py/gluon/html.py", line 2301, in process\n    self.validate(**kwargs)\n  File "/Users/admin/web2py/gluon/html.py", line 2238, in validate\n    if self.accepts(**kwargs):\n  File "/Users/admin/web2py/gluon/sqlhtml.py", line 1501, in accepts\n    self.custom.end = CAT(self.hidden_fields(), self.custom.end)\n  File "/Users/admin/web2py/gluon/html.py", line 2168, in hidden_fields\n    for (key, value) in attr.iteritems()]\nAttributeError: \'list\' object has no attribute \'iteritems\'\n'
p259
s.