(dp1
S'output'
p2
S"<type 'exceptions.ValueError'> could not convert string to float: "
p3
sS'layer'
p4
S'/Users/admin/web2py/applications/editex/controllers/compose.py'
p5
sS'code'
p6
S'@auth.requires_login()\ndef index():\n    print\n    try:\n        print \'auth.user.email: \',auth.user.email\n        print \'auth.user.tutor_email: \', auth.user.tutor_email\n    except Exception, e:\n        print \'exception: \', e\n        mine = db(db.segment.owned_by==auth.user_id).select()\n        #shared    =    db(db.auth_user.tutor_email==auth.user_email).select()\n    return dict(mine=mine)    #,shared=shared)\n\n@auth.requires_login()\ndef auth_form():\n    form = SQLFORM(auth.user,record=4)\n    return dict(form=form)\n\n@auth.requires_login()\ndef new_document():\n    session.seg_cat = \'title\'\n    form=SQLFORM(db.document_root).process()\n    if form.process().accepted:\n        session.cur_group_id = form.vars.id\n        redirect(\'compose\',\'segtext\')\n    else:\n        response.flash="form has errors"\n    return dict(form=form,segs=db(db.segment.group_id==session.cur_group_id).select())\n\n@auth.requires_login()\ndef segtxt():\n    session.seg_cat = \'txt\'\n    if len(request.args)>0:\n        seg2edit = request.args(0,cast=int)\n        form=SQLFORM(db.segment,record=request.args(0,cast=int))\n    else:\n        seg2edit    =    0\n        form=SQLFORM(db.segment)\n    try:\n        segs    =    db(db.segment.group_id==session.cur_group_id).select()\n    except    Exception,    e:\n        response.flash="error:    %s"    %    e\n        redirect(\'compose\',\'index\')\n    if    form.process().accepted:\n        print    "txt    form    accepted"\n        redirect(URL(\'compose\',\'segments\'))\n    else:\n        print    \'error\'\n        response.flash=\'failure    to    insert    record\'\n    return    dict(form=form,segs=segs,seg2edit=seg2edit)\n\n@auth.requires_login()\ndef    segtex():\n    session.seg_cat    =    \'tex\'\n    if    len(request.args)>0:\n        seg2edit    =    request.args(0,cast=int)\n        form=SQLFORM(db.segment,record=request.args(0,cast=int))\n    else:\n        seg2edit    =    0\n        form=SQLFORM(db.segment)\n    try:\n        segs    =    db(db.segment.group_id==session.cur_group_id).select()\n    except    Exception,    e:\n        response.flash="error:    %s"    %    e\n        redirect(\'compose\',\'index\')\n    if    form.process().accepted:\n        print    "TeX    form    accepted"\n        redirect(URL(\'compose\',\'segments\'))\n    else:\n        print    \'error\'\n        response.flash=\'failure    to    insert    record\'\n    return    dict(form=form,segs=segs,seg2edit=seg2edit)\n\ndef    segment_entry():\n    rows    =    db(db.segmnent.root==session.cur_root_id).select(orderby=\'pos\')\n    return    dict()\n\n@auth.requires_login()\ndef    segimg():\n    session.seg_cat    =    \'img\'\n    if    len(request.args)>0:\n        seg2edit    =    request.args(0,cast=int)\n        form=SQLFORM(db.segment,record=request.args(0,cast=int))\n    else:\n        seg2edit    =    0\n    form=SQLFORM(db.segment,fields=\'image\')\n    try:\n        segs    =    db(db.segment.group_id==session.cur_group_id).select()\n    except    Exception,    e:\n        response.flash="error:    %s"    %    e\n        redirect(\'compose\',\'index\')\n    if    form.process().accepted:\n        print    "img    form    accepted"\n        redirect(URL(\'compose\',\'segments\'))\n    else:\n        print    \'error\'\n        response.flash=\'failure    to    insert    record\'\n    return    dict(form=form,segs=segs,seg2edit=seg2edit)\n\ndef    new_section():\n    form    =    SQLFORM(db.segment)\n    if    form.accepts(request,    formname=None):\n        session.cur_root_id    =    form.vars.id\n        row    =    db(db.segment.id==form.vars.id).select().first()\n        row.update_record(root=session.cur_root_id,category=\'title\')\n\n        return    LOAD(\'compose\',\'segment_entry\',    ajax=True)\n    elif    form.errors:\n        return    TABLE(*[TR(k,    v)    for    k,    v    in    form.errors.items()])\n\ndef    append():\n    row    =    db(db.segment.id==request.args(0)).select().first()\n    session.cur_tier    =    row.tier or 0\n    seession.cur_pos    =    row.pos    +    10^(-tier)\n    return    dict()\n\ndef    descend():\n    print request.args(0)\n    row    =    db(db.segment.id==request.args(0)).select().first()\n    print row\n    session.cur_tier    =    row.tier    +    1\n    seession.cur_pos    =    row.pos(cast=int)    +    10^(-tier)\n    return    dict()\n\ndef    list_nodes():\n    rows    =    db(db.segment.id>0).select(orderby=\'pos\')\n    return    dict(rows=rows)\nresponse._vars=response._caller(descend)\n'
p7
sS'snapshot'
p8
(dp9
S'exception'
p10
(dp11
S'__hash__'
p12
S"<method-wrapper '__hash__' of exceptions.ValueError object>"
p13
sS'__setattr__'
p14
S"<method-wrapper '__setattr__' of exceptions.ValueError object>"
p15
sS'__reduce_ex__'
p16
S'<built-in method __reduce_ex__ of exceptions.ValueError object>'
p17
sS'__getslice__'
p18
S"<method-wrapper '__getslice__' of exceptions.ValueError object>"
p19
sS'__getitem__'
p20
S"<method-wrapper '__getitem__' of exceptions.ValueError object>"
p21
sS'__setstate__'
p22
S'<built-in method __setstate__ of exceptions.ValueError object>'
p23
sS'args'
p24
S"('could not convert string to float: ',)"
p25
sS'__reduce__'
p26
S'<built-in method __reduce__ of exceptions.ValueError object>'
p27
sS'__str__'
p28
S"<method-wrapper '__str__' of exceptions.ValueError object>"
p29
sS'__format__'
p30
S'<built-in method __format__ of exceptions.ValueError object>'
p31
sS'__getattribute__'
p32
S"<method-wrapper '__getattribute__' of exceptions.ValueError object>"
p33
sS'__class__'
p34
S"<type 'exceptions.ValueError'>"
p35
sS'__unicode__'
p36
S'<built-in method __unicode__ of exceptions.ValueError object>'
p37
sS'__delattr__'
p38
S"<method-wrapper '__delattr__' of exceptions.ValueError object>"
p39
sS'__subclasshook__'
p40
S'<built-in method __subclasshook__ of type object>'
p41
sS'__repr__'
p42
S"<method-wrapper '__repr__' of exceptions.ValueError object>"
p43
sS'__dict__'
p44
S'{}'
p45
sS'__sizeof__'
p46
S'<built-in method __sizeof__ of exceptions.ValueError object>'
p47
sS'__doc__'
p48
S"'Inappropriate argument value (of correct type).'"
p49
sS'__init__'
p50
S"<method-wrapper '__init__' of exceptions.ValueError object>"
p51
sS'__new__'
p52
S'<built-in method __new__ of type object>'
p53
ssS'evalue'
p54
S'could not convert string to float: '
p55
sS'request'
p56
cgluon.html
XML_unpickle
p57
(S'su\x85\x00\x00<div><table><tr><td style="font-weight:bold;vertical-align:top;">ajax</td><td style="vertical-align:top;">:</td><td><div>False</div></td></tr><tr><td style="font-weight:bold;vertical-align:top;">application</td><td style="vertical-align:top;">:</td><td><div>editex</div></td></tr><tr><td style="font-weight:bold;vertical-align:top;">args</td><td style="vertical-align:top;">:</td><td><div><table><tr><td><div>1</div></td></tr></table></div></td></tr><tr><td style="font-weight:bold;vertical-align:top;">cid</td><td style="vertical-align:top;">:</td><td><div>None</div></td></tr><tr><td style="font-weight:bold;vertical-align:top;">client</td><td style="vertical-align:top;">:</td><td><div>127.0.0.1</div></td></tr><tr><td style="font-weight:bold;vertical-align:top;">controller</td><td style="vertical-align:top;">:</td><td><div>compose</div></td></tr><tr><td style="font-weight:bold;vertical-align:top;">cookies</td><td style="vertical-align:top;">:</td><td><div><table><tr><td style="font-weight:bold;vertical-align:top;">ajs_anonymous_id</td><td style="vertical-align:top;">:</td><td><div>%22c5ce07da-16c3-4f3a-b4fd-0a458506c7ad%22<table><tr><td style="font-weight:bold;vertical-align:top;">comment</td><td style="vertical-align:top;">:</td><td><div></div></td></tr><tr><td style="font-weight:bold;vertical-align:top;">domain</td><td style="vertical-align:top;">:</td><td><div></div></td></tr><tr><td style="font-weight:bold;vertical-align:top;">expires</td><td style="vertical-align:top;">:</td><td><div></div></td></tr><tr><td style="font-weight:bold;vertical-align:top;">httponly</td><td style="vertical-align:top;">:</td><td><div></div></td></tr><tr><td style="font-weight:bold;vertical-align:top;">max-age</td><td style="vertical-align:top;">:</td><td><div></div></td></tr><tr><td style="font-weight:bold;vertical-align:top;">path</td><td style="vertical-align:top;">:</td><td><div></div></td></tr><tr><td style="font-weight:bold;vertical-align:top;">secure</td><td style="vertical-align:top;">:</td><td><div></div></td></tr><tr><td style="font-weight:bold;vertical-align:top;">version</td><td style="vertical-align:top;">:</td><td><div></div></td></tr></table></div></td></tr><tr><td style="font-weight:bold;vertical-align:top;">ajs_group_id</td><td style="vertical-align:top;">:</td><td><div>null<table><tr><td style="font-weight:bold;vertical-align:top;">comment</td><td style="vertical-align:top;">:</td><td><div></div></td></tr><tr><td style="font-weight:bold;vertical-align:top;">domain</td><td style="vertical-align:top;">:</td><td><div></div></td></tr><tr><td style="font-weight:bold;vertical-align:top;">expires</td><td style="vertical-align:top;">:</td><td><div></div></td></tr><tr><td style="font-weight:bold;vertical-align:top;">httponly</td><td style="vertical-align:top;">:</td><td><div></div></td></tr><tr><td style="font-weight:bold;vertical-align:top;">max-age</td><td style="vertical-align:top;">:</td><td><div></div></td></tr><tr><td style="font-weight:bold;vertical-align:top;">path</td><td style="vertical-align:top;">:</td><td><div></div></td></tr><tr><td style="font-weight:bold;vertical-align:top;">secure</td><td style="vertical-align:top;">:</td><td><div></div></td></tr><tr><td style="font-weight:bold;vertical-align:top;">version</td><td style="vertical-align:top;">:</td><td><div></div></td></tr></table></div></td></tr><tr><td style="font-weight:bold;vertical-align:top;">ajs_user_id</td><td style="vertical-align:top;">:</td><td><div>null<table><tr><td style="font-weight:bold;vertical-align:top;">comment</td><td style="vertical-align:top;">:</td><td><div></div></td></tr><tr><td style="font-weight:bold;vertical-align:top;">domain</td><td style="vertical-align:top;">:</td><td><div></div></td></tr><tr><td style="font-weight:bold;vertical-align:top;">expires</td><td style="vertical-align:top;">:</td><td><div></div></td></tr><tr><td style="font-weight:bold;vertical-align:top;">httponly</td><td style="vertical-align:top;">:</td><td><div></div></td></tr><tr><td style="font-weight:bold;vertical-align:top;">max-age</td><td style="vertical-align:top;">:</td><td><div></div></td></tr><tr><td style="font-weight:bold;vertical-align:top;">path</td><td style="vertical-align:top;">:</td><td><div></div></td></tr><tr><td style="font-weight:bold;vertical-align:top;">secure</td><td style="vertical-align:top;">:</td><td><div></div></td></tr><tr><td style="font-weight:bold;vertical-align:top;">version</td><td style="vertical-align:top;">:</td><td><div></div></td></tr></table></div></td></tr><tr><td style="font-weight:bold;vertical-align:top;">mp_c5357a0b115c737650036b7b22ee864f_mixpanel</td><td style="vertical-align:top;">:</td><td><div>%7B%22distinct_id%22%3A%20%221531d8f5c972af-0c0a2a82c-35677f0a-140000-1531d8f5c98239%22%2C%22%24initial_referrer%22%3A%20%22%24direct%22%2C%22%24initial_referring_domain%22%3A%20%22%24direct%22%7D<table><tr><td style="font-weight:bold;vertical-align:top;">comment</td><td style="vertical-align:top;">:</td><td><div></div></td></tr><tr><td style="font-weight:bold;vertical-align:top;">domain</td><td style="vertical-align:top;">:</td><td><div></div></td></tr><tr><td style="font-weight:bold;vertical-align:top;">expires</td><td style="vertical-align:top;">:</td><td><div></div></td></tr><tr><td style="font-weight:bold;vertical-align:top;">httponly</td><td style="vertical-align:top;">:</td><td><div></div></td></tr><tr><td style="font-weight:bold;vertical-align:top;">max-age</td><td style="vertical-align:top;">:</td><td><div></div></td></tr><tr><td style="font-weight:bold;vertical-align:top;">path</td><td style="vertical-align:top;">:</td><td><div></div></td></tr><tr><td style="font-weight:bold;vertical-align:top;">secure</td><td style="vertical-align:top;">:</td><td><div></div></td></tr><tr><td style="font-weight:bold;vertical-align:top;">version</td><td style="vertical-align:top;">:</td><td><div></div></td></tr></table></div></td></tr><tr><td style="font-weight:bold;vertical-align:top;">session_id_admin</td><td style="vertical-align:top;">:</td><td><div>127.0.0.1-e7346b06-1bca-48fb-bd86-64d3b87ecb37<table><tr><td style="font-weight:bold;vertical-align:top;">comment</td><td style="vertical-align:top;">:</td><td><div></div></td></tr><tr><td style="font-weight:bold;vertical-align:top;">domain</td><td style="vertical-align:top;">:</td><td><div></div></td></tr><tr><td style="font-weight:bold;vertical-align:top;">expires</td><td style="vertical-align:top;">:</td><td><div></div></td></tr><tr><td style="font-weight:bold;vertical-align:top;">httponly</td><td style="vertical-align:top;">:</td><td><div></div></td></tr><tr><td style="font-weight:bold;vertical-align:top;">max-age</td><td style="vertical-align:top;">:</td><td><div></div></td></tr><tr><td style="font-weight:bold;vertical-align:top;">path</td><td style="vertical-align:top;">:</td><td><div></div></td></tr><tr><td style="font-weight:bold;vertical-align:top;">secure</td><td style="vertical-align:top;">:</td><td><div></div></td></tr><tr><td style="font-weight:bold;vertical-align:top;">version</td><td style="vertical-align:top;">:</td><td><div></div></td></tr></table></div></td></tr><tr><td style="font-weight:bold;vertical-align:top;">session_id_editex</td><td style="vertical-align:top;">:</td><td><div>127.0.0.1-780aeb25-9f9c-4573-8f39-3add00357357<table><tr><td style="font-weight:bold;vertical-align:top;">comment</td><td style="vertical-align:top;">:</td><td><div></div></td></tr><tr><td style="font-weight:bold;vertical-align:top;">domain</td><td style="vertical-align:top;">:</td><td><div></div></td></tr><tr><td style="font-weight:bold;vertical-align:top;">expires</td><td style="vertical-align:top;">:</td><td><div></div></td></tr><tr><td style="font-weight:bold;vertical-align:top;">httponly</td><td style="vertical-align:top;">:</td><td><div></div></td></tr><tr><td style="font-weight:bold;vertical-align:top;">max-age</td><td style="vertical-align:top;">:</td><td><div></div></td></tr><tr><td style="font-weight:bold;vertical-align:top;">path</td><td style="vertical-align:top;">:</td><td><div></div></td></tr><tr><td style="font-weight:bold;vertical-align:top;">secure</td><td style="vertical-align:top;">:</td><td><div></div></td></tr><tr><td style="font-weight:bold;vertical-align:top;">version</td><td style="vertical-align:top;">:</td><td><div></div></td></tr></table></div></td></tr><tr><td style="font-weight:bold;vertical-align:top;">session_id_prodigious</td><td style="vertical-align:top;">:</td><td><div>127.0.0.1-b34e3ded-6950-4c91-83b3-cd66a19963f6<table><tr><td style="font-weight:bold;vertical-align:top;">comment</td><td style="vertical-align:top;">:</td><td><div></div></td></tr><tr><td style="font-weight:bold;vertical-align:top;">domain</td><td style="vertical-align:top;">:</td><td><div></div></td></tr><tr><td style="font-weight:bold;vertical-align:top;">expires</td><td style="vertical-align:top;">:</td><td><div></div></td></tr><tr><td style="font-weight:bold;vertical-align:top;">httponly</td><td style="vertical-align:top;">:</td><td><div></div></td></tr><tr><td style="font-weight:bold;vertical-align:top;">max-age</td><td style="vertical-align:top;">:</td><td><div></div></td></tr><tr><td style="font-weight:bold;vertical-align:top;">path</td><td style="vertical-align:top;">:</td><td><div></div></td></tr><tr><td style="font-weight:bold;vertical-align:top;">secure</td><td style="vertical-align:top;">:</td><td><div></div></td></tr><tr><td style="font-weight:bold;vertical-align:top;">version</td><td style="vertical-align:top;">:</td><td><div></div></td></tr></table></div></td></tr><tr><td style="font-weight:bold;vertical-align:top;">session_id_styler</td><td style="vertical-align:top;">:</td><td><div>127.0.0.1-ee8c35d3-6dfc-45b7-b2f0-29a184475310<table><tr><td style="font-weight:bold;vertical-align:top;">comment</td><td style="vertical-align:top;">:</td><td><div></div></td></tr><tr><td style="font-weight:bold;vertical-align:top;">domain</td><td style="vertical-align:top;">:</td><td><div></div></td></tr><tr><td style="font-weight:bold;vertical-align:top;">expires</td><td style="vertical-align:top;">:</td><td><div></div></td></tr><tr><td style="font-weight:bold;vertical-align:top;">httponly</td><td style="vertical-align:top;">:</td><td><div></div></td></tr><tr><td style="font-weight:bold;vertical-align:top;">max-age</td><td style="vertical-align:top;">:</td><td><div></div></td></tr><tr><td style="font-weight:bold;vertical-align:top;">path</td><td style="vertical-align:top;">:</td><td><div></div></td></tr><tr><td style="font-weight:bold;vertical-align:top;">secure</td><td style="vertical-align:top;">:</td><td><div></div></td></tr><tr><td style="font-weight:bold;vertical-align:top;">version</td><td style="vertical-align:top;">:</td><td><div></div></td></tr></table></div></td></tr><tr><td style="font-weight:bold;vertical-align:top;">session_id_welcome</td><td style="vertical-align:top;">:</td><td><div>127.0.0.1-d3cca59c-140e-4dd5-a49a-57dba19a23c8<table><tr><td style="font-weight:bold;vertical-align:top;">comment</td><td style="vertical-align:top;">:</td><td><div></div></td></tr><tr><td style="font-weight:bold;vertical-align:top;">domain</td><td style="vertical-align:top;">:</td><td><div></div></td></tr><tr><td style="font-weight:bold;vertical-align:top;">expires</td><td style="vertical-align:top;">:</td><td><div></div></td></tr><tr><td style="font-weight:bold;vertical-align:top;">httponly</td><td style="vertical-align:top;">:</td><td><div></div></td></tr><tr><td style="font-weight:bold;vertical-align:top;">max-age</td><td style="vertical-align:top;">:</td><td><div></div></td></tr><tr><td style="font-weight:bold;vertical-align:top;">path</td><td style="vertical-align:top;">:</td><td><div></div></td></tr><tr><td style="font-weight:bold;vertical-align:top;">secure</td><td style="vertical-align:top;">:</td><td><div></div></td></tr><tr><td style="font-weight:bold;vertical-align:top;">version</td><td style="vertical-align:top;">:</td><td><div></div></td></tr></table></div></td></tr><tr><td style="font-weight:bold;vertical-align:top;">session_id_wider</td><td style="vertical-align:top;">:</td><td><div>127.0.0.1-8c9a3633-0820-4cab-a449-a3d0f8403fb4<table><tr><td style="font-weight:bold;vertical-align:top;">comment</td><td style="vertical-align:top;">:</td><td><div></div></td></tr><tr><td style="font-weight:bold;vertical-align:top;">domain</td><td style="vertical-align:top;">:</td><td><div></div></td></tr><tr><td style="font-weight:bold;vertical-align:top;">expires</td><td style="vertical-align:top;">:</td><td><div></div></td></tr><tr><td style="font-weight:bold;vertical-align:top;">httponly</td><td style="vertical-align:top;">:</td><td><div></div></td></tr><tr><td style="font-weight:bold;vertical-align:top;">max-age</td><td style="vertical-align:top;">:</td><td><div></div></td></tr><tr><td style="font-weight:bold;vertical-align:top;">path</td><td style="vertical-align:top;">:</td><td><div></div></td></tr><tr><td style="font-weight:bold;vertical-align:top;">secure</td><td style="vertical-align:top;">:</td><td><div></div></td></tr><tr><td style="font-weight:bold;vertical-align:top;">version</td><td style="vertical-align:top;">:</td><td><div></div></td></tr></table></div></td></tr></table></div></td></tr><tr><td style="font-weight:bold;vertical-align:top;">env</td><td style="vertical-align:top;">:</td><td><div><table><tr><td style="font-weight:bold;vertical-align:top;">HTTP_ACCEPT</td><td style="vertical-align:top;">:</td><td><div>text/html,application/xhtml+xml,application/xml;q=0.9,image/webp,*/*;q=0.8</div></td></tr><tr><td style="font-weight:bold;vertical-align:top;">HTTP_ACCEPT_ENCODING</td><td style="vertical-align:top;">:</td><td><div>gzip, deflate, sdch</div></td></tr><tr><td style="font-weight:bold;vertical-align:top;">HTTP_ACCEPT_LANGUAGE</td><td style="vertical-align:top;">:</td><td><div>en-US,en;q=0.8</div></td></tr><tr><td style="font-weight:bold;vertical-align:top;">HTTP_CACHE_CONTROL</td><td style="vertical-align:top;">:</td><td><div>max-age=0</div></td></tr><tr><td style="font-weight:bold;vertical-align:top;">HTTP_CONNECTION</td><td style="vertical-align:top;">:</td><td><div>keep-alive</div></td></tr><tr><td style="font-weight:bold;vertical-align:top;">HTTP_COOKIE</td><td style="vertical-align:top;">:</td><td><div>ajs_anonymous_id=%22c5ce07da-16c3-4f3a-b4fd-0a458506c7ad%22; ajs_user_id=null; ajs_group_id=null; mp_c5357a0b115c737650036b7b22ee864f_mixpanel=%7B%22distinct_id%22%3A%20%221531d8f5c972af-0c0a2a82c-35677f0a-140000-1531d8f5c98239%22%2C%22%24initial_referrer%22%3A%20%22%24direct%22%2C%22%24initial_referring_domain%22%3A%20%22%24direct%22%7D; session_id_wider=127.0.0.1-8c9a3633-0820-4cab-a449-a3d0f8403fb4; session_id_styler=127.0.0.1-ee8c35d3-6dfc-45b7-b2f0-29a184475310; session_id_welcome=127.0.0.1-d3cca59c-140e-4dd5-a49a-57dba19a23c8; session_id_prodigious=127.0.0.1-b34e3ded-6950-4c91-83b3-cd66a19963f6; session_id_admin=127.0.0.1-e7346b06-1bca-48fb-bd86-64d3b87ecb37; session_id_editex=127.0.0.1-780aeb25-9f9c-4573-8f39-3add00357357</div></td></tr><tr><td style="font-weight:bold;vertical-align:top;">HTTP_HOST</td><td style="vertical-align:top;">:</td><td><div>127.0.0.1:8000</div></td></tr><tr><td style="font-weight:bold;vertical-align:top;">HTTP_REFERER</td><td style="vertical-align:top;">:</td><td><div>http://127.0.0.1:8000/editex/compose/list_nodes</div></td></tr><tr><td style="font-weight:bold;vertical-align:top;">HTTP_UPGRADE_INSECURE_REQUESTS</td><td style="vertical-align:top;">:</td><td><div>1</div></td></tr><tr><td style="font-weight:bold;vertical-align:top;">HTTP_USER_AGENT</td><td style="vertical-align:top;">:</td><td><div>Mozilla/5.0 (Macintosh; Intel Mac OS X 10_10_5) AppleWebKit/537.36 (KHTML, like Gecko) Chrome/48.0.2564.116 Safari/537.36</div></td></tr><tr><td style="font-weight:bold;vertical-align:top;">PATH_INFO</td><td style="vertical-align:top;">:</td><td><div>/editex/compose/descend/1</div></td></tr><tr><td style="font-weight:bold;vertical-align:top;">QUERY_STRING</td><td style="vertical-align:top;">:</td><td><div></div></td></tr><tr><td style="font-weight:bold;vertical-align:top;">REMOTE_ADDR</td><td style="vertical-align:top;">:</td><td><div>127.0.0.1</div></td></tr><tr><td style="font-weight:bold;vertical-align:top;">REMOTE_PORT</td><td style="vertical-align:top;">:</td><td><div>63437</div></td></tr><tr><td style="font-weight:bold;vertical-align:top;">REQUEST_METHOD</td><td style="vertical-align:top;">:</td><td><div>GET</div></td></tr><tr><td style="font-weight:bold;vertical-align:top;">SCRIPT_NAME</td><td style="vertical-align:top;">:</td><td><div></div></td></tr><tr><td style="font-weight:bold;vertical-align:top;">SERVER_NAME</td><td style="vertical-align:top;">:</td><td><div>minion.local</div></td></tr><tr><td style="font-weight:bold;vertical-align:top;">SERVER_PORT</td><td style="vertical-align:top;">:</td><td><div>8000</div></td></tr><tr><td style="font-weight:bold;vertical-align:top;">SERVER_PROTOCOL</td><td style="vertical-align:top;">:</td><td><div>HTTP/1.1</div></td></tr><tr><td style="font-weight:bold;vertical-align:top;">SERVER_SOFTWARE</td><td style="vertical-align:top;">:</td><td><div>Rocket 1.2.6</div></td></tr><tr><td style="font-weight:bold;vertical-align:top;">app_folders</td><td style="vertical-align:top;">:</td><td><div>set([&#x27;/Users/admin/web2py/applications/editex/&#x27;, &#x27;/Users/admin/web2py/applications/admin/&#x27;, &#x27;/Users/admin/web2py/applications/prodigious/&#x27;, &#x27;/Users/admin/web2py/applications/welcome/&#x27;])</div></td></tr><tr><td style="font-weight:bold;vertical-align:top;">applications_parent</td><td style="vertical-align:top;">:</td><td><div>/Users/admin/web2py</div></td></tr><tr><td style="font-weight:bold;vertical-align:top;">cmd_args</td><td style="vertical-align:top;">:</td><td><div><table></table></div></td></tr><tr><td style="font-weight:bold;vertical-align:top;">cmd_options</td><td style="vertical-align:top;">:</td><td><div>&lt;Values at 0x10cf74248: {&#x27;verbose&#x27;: False, &#x27;ip&#x27;: &#x27;127.0.0.1&#x27;, &#x27;debuglevel&#x27;: 30, &#x27;with_scheduler&#x27;: False, &#x27;ips&#x27;: [&#x27;192.168.1.12&#x27;, &#x27;fe80::21f:5bff:fe38:218%en0&#x27;, &#x27;192.168.2.200&#x27;, &#x27;fe80::21f:f3ff:fe6e:386%fw0&#x27;], &#x27;shutdown_timeout&#x27;: 5, &#x27;taskbar&#x27;: False, &#x27;with_coverage&#x27;: False, &#x27;scheduler_groups&#x27;: None, &#x27;port&#x27;: 8000, &#x27;maxthreads&#x27;: None, &#x27;softcron&#x27;: False, &#x27;server_name&#x27;: &#x27;minion.local&#x27;, &#x27;bpython&#x27;: False, &#x27;nogui&#x27;: False, &#x27;pid_filename&#x27;: &#x27;httpserver.pid&#x27;, &#x27;print_errors&#x27;: False, &#x27;extcron&#x27;: False, &#x27;runcron&#x27;: False, &#x27;run_system_tests&#x27;: False, &#x27;test&#x27;: None, &#x27;folder&#x27;: &#x27;/Users/admin/web2py&#x27;, &#x27;config&#x27;: &#x27;&#x27;, &#x27;minthreads&#x27;: None, &#x27;shell&#x27;: None, &#x27;run&#x27;: &#x27;&#x27;, &#x27;log_filename&#x27;: &#x27;httpserver.log&#x27;, &#x27;profiler_dir&#x27;: None, &#x27;args&#x27;: [&#x27;&#x27;], &#x27;socket_timeout&#x27;: 5, &#x27;ssl_ca_certificate&#x27;: None, &#x27;scheduler&#x27;: None, &#x27;interfaces&#x27;: None, &#x27;ssl_private_key&#x27;: &#x27;&#x27;, &#x27;gae&#x27;: None, &#x27;password&#x27;: &#x27;&lt;ask&gt;&#x27;, &#x27;request_queue_size&#x27;: 5, &#x27;ssl_certificate&#x27;: &#x27;&#x27;, &#x27;cronjob&#x27;: False, &#x27;numthreads&#x27;: None, &#x27;quiet&#x27;: False, &#x27;import_models&#x27;: False, &#x27;timeout&#x27;: 10, &#x27;plain&#x27;: False, &#x27;nobanner&#x27;: False}&gt;</div></td></tr><tr><td style="font-weight:bold;vertical-align:top;">db_sessions</td><td style="vertical-align:top;">:</td><td><div>set([])</div></td></tr><tr><td style="font-weight:bold;vertical-align:top;">debugging</td><td style="vertical-align:top;">:</td><td><div>True</div></td></tr><tr><td style="font-weight:bold;vertical-align:top;">gluon_parent</td><td style="vertical-align:top;">:</td><td><div>/Users/admin/web2py</div></td></tr><tr><td style="font-weight:bold;vertical-align:top;">http_accept</td><td style="vertical-align:top;">:</td><td><div>text/html,application/xhtml+xml,application/xml;q=0.9,image/webp,*/*;q=0.8</div></td></tr><tr><td style="font-weight:bold;vertical-align:top;">http_accept_encoding</td><td style="vertical-align:top;">:</td><td><div>gzip, deflate, sdch</div></td></tr><tr><td style="font-weight:bold;vertical-align:top;">http_accept_language</td><td style="vertical-align:top;">:</td><td><div>en-US,en;q=0.8</div></td></tr><tr><td style="font-weight:bold;vertical-align:top;">http_cache_control</td><td style="vertical-align:top;">:</td><td><div>max-age=0</div></td></tr><tr><td style="font-weight:bold;vertical-align:top;">http_connection</td><td style="vertical-align:top;">:</td><td><div>keep-alive</div></td></tr><tr><td style="font-weight:bold;vertical-align:top;">http_cookie</td><td style="vertical-align:top;">:</td><td><div>ajs_anonymous_id=%22c5ce07da-16c3-4f3a-b4fd-0a458506c7ad%22; ajs_user_id=null; ajs_group_id=null; mp_c5357a0b115c737650036b7b22ee864f_mixpanel=%7B%22distinct_id%22%3A%20%221531d8f5c972af-0c0a2a82c-35677f0a-140000-1531d8f5c98239%22%2C%22%24initial_referrer%22%3A%20%22%24direct%22%2C%22%24initial_referring_domain%22%3A%20%22%24direct%22%7D; session_id_wider=127.0.0.1-8c9a3633-0820-4cab-a449-a3d0f8403fb4; session_id_styler=127.0.0.1-ee8c35d3-6dfc-45b7-b2f0-29a184475310; session_id_welcome=127.0.0.1-d3cca59c-140e-4dd5-a49a-57dba19a23c8; session_id_prodigious=127.0.0.1-b34e3ded-6950-4c91-83b3-cd66a19963f6; session_id_admin=127.0.0.1-e7346b06-1bca-48fb-bd86-64d3b87ecb37; session_id_editex=127.0.0.1-780aeb25-9f9c-4573-8f39-3add00357357</div></td></tr><tr><td style="font-weight:bold;vertical-align:top;">http_host</td><td style="vertical-align:top;">:</td><td><div>127.0.0.1:8000</div></td></tr><tr><td style="font-weight:bold;vertical-align:top;">http_referer</td><td style="vertical-align:top;">:</td><td><div>http://127.0.0.1:8000/editex/compose/list_nodes</div></td></tr><tr><td style="font-weight:bold;vertical-align:top;">http_upgrade_insecure_requests</td><td style="vertical-align:top;">:</td><td><div>1</div></td></tr><tr><td style="font-weight:bold;vertical-align:top;">http_user_agent</td><td style="vertical-align:top;">:</td><td><div>Mozilla/5.0 (Macintosh; Intel Mac OS X 10_10_5) AppleWebKit/537.36 (KHTML, like Gecko) Chrome/48.0.2564.116 Safari/537.36</div></td></tr><tr><td style="font-weight:bold;vertical-align:top;">is_jython</td><td style="vertical-align:top;">:</td><td><div>False</div></td></tr><tr><td style="font-weight:bold;vertical-align:top;">is_pypy</td><td style="vertical-align:top;">:</td><td><div>False</div></td></tr><tr><td style="font-weight:bold;vertical-align:top;">is_source</td><td style="vertical-align:top;">:</td><td><div>True</div></td></tr><tr><td style="font-weight:bold;vertical-align:top;">local_hosts</td><td style="vertical-align:top;">:</td><td><div><table><tr><td><div>minion.local</div></td></tr><tr><td><div>192.168.1.12</div></td></tr><tr><td><div>::ffff:127.0.0.1</div></td></tr><tr><td><div>::1</div></td></tr><tr><td><div>fe80::21f:5bff:fe38:218%en0</div></td></tr><tr><td><div>fe80::21f:f3ff:fe6e:386%fw0</div></td></tr><tr><td><div>192.168.2.200</div></td></tr><tr><td><div>127.0.0.1</div></td></tr></table></div></td></tr><tr><td style="font-weight:bold;vertical-align:top;">path_info</td><td style="vertical-align:top;">:</td><td><div>/editex/compose/descend/1</div></td></tr><tr><td style="font-weight:bold;vertical-align:top;">query_string</td><td style="vertical-align:top;">:</td><td><div></div></td></tr><tr><td style="font-weight:bold;vertical-align:top;">remote_addr</td><td style="vertical-align:top;">:</td><td><div>127.0.0.1</div></td></tr><tr><td style="font-weight:bold;vertical-align:top;">remote_port</td><td style="vertical-align:top;">:</td><td><div>63437</div></td></tr><tr><td style="font-weight:bold;vertical-align:top;">request_method</td><td style="vertical-align:top;">:</td><td><div>GET</div></td></tr><tr><td style="font-weight:bold;vertical-align:top;">request_uri</td><td style="vertical-align:top;">:</td><td><div>/editex/compose/descend/1</div></td></tr><tr><td style="font-weight:bold;vertical-align:top;">script_name</td><td style="vertical-align:top;">:</td><td><div></div></td></tr><tr><td style="font-weight:bold;vertical-align:top;">server_name</td><td style="vertical-align:top;">:</td><td><div>minion.local</div></td></tr><tr><td style="font-weight:bold;vertical-align:top;">server_port</td><td style="vertical-align:top;">:</td><td><div>8000</div></td></tr><tr><td style="font-weight:bold;vertical-align:top;">server_protocol</td><td style="vertical-align:top;">:</td><td><div>HTTP/1.1</div></td></tr><tr><td style="font-weight:bold;vertical-align:top;">server_software</td><td style="vertical-align:top;">:</td><td><div>Rocket 1.2.6</div></td></tr><tr><td style="font-weight:bold;vertical-align:top;">web2py_path</td><td style="vertical-align:top;">:</td><td><div>/Users/admin/web2py</div></td></tr><tr><td style="font-weight:bold;vertical-align:top;">web2py_version</td><td style="vertical-align:top;">:</td><td><div>2.12.3-stable+timestamp.2015.08.18.19.14.07</div></td></tr><tr><td style="font-weight:bold;vertical-align:top;">wsgi.errors</td><td style="vertical-align:top;">:</td><td><div>&lt;open file &#x27;&lt;stderr&gt;&#x27;, mode &#x27;w&#x27; at 0x10bed21e0&gt;</div></td></tr><tr><td style="font-weight:bold;vertical-align:top;">wsgi.file_wrapper</td><td style="vertical-align:top;">:</td><td><div>&lt;class wsgiref.util.FileWrapper at 0x10cefc600&gt;</div></td></tr><tr><td style="font-weight:bold;vertical-align:top;">wsgi.input</td><td style="vertical-align:top;">:</td><td><div>&lt;socket._fileobject object at 0x118652750&gt;</div></td></tr><tr><td style="font-weight:bold;vertical-align:top;">wsgi.multiprocess</td><td style="vertical-align:top;">:</td><td><div>False</div></td></tr><tr><td style="font-weight:bold;vertical-align:top;">wsgi.multithread</td><td style="vertical-align:top;">:</td><td><div>True</div></td></tr><tr><td style="font-weight:bold;vertical-align:top;">wsgi.run_once</td><td style="vertical-align:top;">:</td><td><div>False</div></td></tr><tr><td style="font-weight:bold;vertical-align:top;">wsgi.url_scheme</td><td style="vertical-align:top;">:</td><td><div>http</div></td></tr><tr><td style="font-weight:bold;vertical-align:top;">wsgi.version</td><td style="vertical-align:top;">:</td><td><div><table><tr><td><div>1</div></td></tr><tr><td><div>0</div></td></tr></table></div></td></tr><tr><td style="font-weight:bold;vertical-align:top;">wsgi_errors</td><td style="vertical-align:top;">:</td><td><div>&lt;open file &#x27;&lt;stderr&gt;&#x27;, mode &#x27;w&#x27; at 0x10bed21e0&gt;</div></td></tr><tr><td style="font-weight:bold;vertical-align:top;">wsgi_file_wrapper</td><td style="vertical-align:top;">:</td><td><div>&lt;class wsgiref.util.FileWrapper at 0x10cefc600&gt;</div></td></tr><tr><td style="font-weight:bold;vertical-align:top;">wsgi_input</td><td style="vertical-align:top;">:</td><td><div>&lt;socket._fileobject object at 0x118652750&gt;</div></td></tr><tr><td style="font-weight:bold;vertical-align:top;">wsgi_multiprocess</td><td style="vertical-align:top;">:</td><td><div>False</div></td></tr><tr><td style="font-weight:bold;vertical-align:top;">wsgi_multithread</td><td style="vertical-align:top;">:</td><td><div>True</div></td></tr><tr><td style="font-weight:bold;vertical-align:top;">wsgi_run_once</td><td style="vertical-align:top;">:</td><td><div>False</div></td></tr><tr><td style="font-weight:bold;vertical-align:top;">wsgi_url_scheme</td><td style="vertical-align:top;">:</td><td><div>http</div></td></tr><tr><td style="font-weight:bold;vertical-align:top;">wsgi_version</td><td style="vertical-align:top;">:</td><td><div><table><tr><td><div>1</div></td></tr><tr><td><div>0</div></td></tr></table></div></td></tr></table></div></td></tr><tr><td style="font-weight:bold;vertical-align:top;">extension</td><td style="vertical-align:top;">:</td><td><div>html</div></td></tr><tr><td style="font-weight:bold;vertical-align:top;">folder</td><td style="vertical-align:top;">:</td><td><div>/Users/admin/web2py/applications/editex/</div></td></tr><tr><td style="font-weight:bold;vertical-align:top;">function</td><td style="vertical-align:top;">:</td><td><div>descend</div></td></tr><tr><td style="font-weight:bold;vertical-align:top;">global_settings</td><td style="vertical-align:top;">:</td><td><div><table><tr><td style="font-weight:bold;vertical-align:top;">app_folders</td><td style="vertical-align:top;">:</td><td><div>set([&#x27;/Users/admin/web2py/applications/editex/&#x27;, &#x27;/Users/admin/web2py/applications/admin/&#x27;, &#x27;/Users/admin/web2py/applications/prodigious/&#x27;, &#x27;/Users/admin/web2py/applications/welcome/&#x27;])</div></td></tr><tr><td style="font-weight:bold;vertical-align:top;">applications_parent</td><td style="vertical-align:top;">:</td><td><div>/Users/admin/web2py</div></td></tr><tr><td style="font-weight:bold;vertical-align:top;">cmd_args</td><td style="vertical-align:top;">:</td><td><div><table></table></div></td></tr><tr><td style="font-weight:bold;vertical-align:top;">cmd_options</td><td style="vertical-align:top;">:</td><td><div>&lt;Values at 0x10cf74248: {&#x27;verbose&#x27;: False, &#x27;ip&#x27;: &#x27;127.0.0.1&#x27;, &#x27;debuglevel&#x27;: 30, &#x27;with_scheduler&#x27;: False, &#x27;ips&#x27;: [&#x27;192.168.1.12&#x27;, &#x27;fe80::21f:5bff:fe38:218%en0&#x27;, &#x27;192.168.2.200&#x27;, &#x27;fe80::21f:f3ff:fe6e:386%fw0&#x27;], &#x27;shutdown_timeout&#x27;: 5, &#x27;taskbar&#x27;: False, &#x27;with_coverage&#x27;: False, &#x27;scheduler_groups&#x27;: None, &#x27;port&#x27;: 8000, &#x27;maxthreads&#x27;: None, &#x27;softcron&#x27;: False, &#x27;server_name&#x27;: &#x27;minion.local&#x27;, &#x27;bpython&#x27;: False, &#x27;nogui&#x27;: False, &#x27;pid_filename&#x27;: &#x27;httpserver.pid&#x27;, &#x27;print_errors&#x27;: False, &#x27;extcron&#x27;: False, &#x27;runcron&#x27;: False, &#x27;run_system_tests&#x27;: False, &#x27;test&#x27;: None, &#x27;folder&#x27;: &#x27;/Users/admin/web2py&#x27;, &#x27;config&#x27;: &#x27;&#x27;, &#x27;minthreads&#x27;: None, &#x27;shell&#x27;: None, &#x27;run&#x27;: &#x27;&#x27;, &#x27;log_filename&#x27;: &#x27;httpserver.log&#x27;, &#x27;profiler_dir&#x27;: None, &#x27;args&#x27;: [&#x27;&#x27;], &#x27;socket_timeout&#x27;: 5, &#x27;ssl_ca_certificate&#x27;: None, &#x27;scheduler&#x27;: None, &#x27;interfaces&#x27;: None, &#x27;ssl_private_key&#x27;: &#x27;&#x27;, &#x27;gae&#x27;: None, &#x27;password&#x27;: &#x27;&lt;ask&gt;&#x27;, &#x27;request_queue_size&#x27;: 5, &#x27;ssl_certificate&#x27;: &#x27;&#x27;, &#x27;cronjob&#x27;: False, &#x27;numthreads&#x27;: None, &#x27;quiet&#x27;: False, &#x27;import_models&#x27;: False, &#x27;timeout&#x27;: 10, &#x27;plain&#x27;: False, &#x27;nobanner&#x27;: False}&gt;</div></td></tr><tr><td style="font-weight:bold;vertical-align:top;">db_sessions</td><td style="vertical-align:top;">:</td><td><div>set([])</div></td></tr><tr><td style="font-weight:bold;vertical-align:top;">debugging</td><td style="vertical-align:top;">:</td><td><div>True</div></td></tr><tr><td style="font-weight:bold;vertical-align:top;">gluon_parent</td><td style="vertical-align:top;">:</td><td><div>/Users/admin/web2py</div></td></tr><tr><td style="font-weight:bold;vertical-align:top;">is_jython</td><td style="vertical-align:top;">:</td><td><div>False</div></td></tr><tr><td style="font-weight:bold;vertical-align:top;">is_pypy</td><td style="vertical-align:top;">:</td><td><div>False</div></td></tr><tr><td style="font-weight:bold;vertical-align:top;">is_source</td><td style="vertical-align:top;">:</td><td><div>True</div></td></tr><tr><td style="font-weight:bold;vertical-align:top;">local_hosts</td><td style="vertical-align:top;">:</td><td><div><table><tr><td><div>minion.local</div></td></tr><tr><td><div>192.168.1.12</div></td></tr><tr><td><div>::ffff:127.0.0.1</div></td></tr><tr><td><div>::1</div></td></tr><tr><td><div>fe80::21f:5bff:fe38:218%en0</div></td></tr><tr><td><div>fe80::21f:f3ff:fe6e:386%fw0</div></td></tr><tr><td><div>192.168.2.200</div></td></tr><tr><td><div>127.0.0.1</div></td></tr></table></div></td></tr><tr><td style="font-weight:bold;vertical-align:top;">web2py_version</td><td style="vertical-align:top;">:</td><td><div>2.12.3-stable+timestamp.2015.08.18.19.14.07</div></td></tr></table></div></td></tr><tr><td style="font-weight:bold;vertical-align:top;">is_https</td><td style="vertical-align:top;">:</td><td><div>False</div></td></tr><tr><td style="font-weight:bold;vertical-align:top;">is_local</td><td style="vertical-align:top;">:</td><td><div>True</div></td></tr><tr><td style="font-weight:bold;vertical-align:top;">is_restful</td><td style="vertical-align:top;">:</td><td><div>False</div></td></tr><tr><td style="font-weight:bold;vertical-align:top;">is_sheduler</td><td style="vertical-align:top;">:</td><td><div>None</div></td></tr><tr><td style="font-weight:bold;vertical-align:top;">is_shell</td><td style="vertical-align:top;">:</td><td><div>None</div></td></tr><tr><td style="font-weight:bold;vertical-align:top;">now</td><td style="vertical-align:top;">:</td><td><div>datetime.datetime(2016, 3, 8, 5, 6, 35, 352949)</div></td></tr><tr><td style="font-weight:bold;vertical-align:top;">raw_args</td><td style="vertical-align:top;">:</td><td><div>1</div></td></tr><tr><td style="font-weight:bold;vertical-align:top;">raw_extension</td><td style="vertical-align:top;">:</td><td><div>None</div></td></tr><tr><td style="font-weight:bold;vertical-align:top;">url</td><td style="vertical-align:top;">:</td><td><div>/editex/compose/descend/1</div></td></tr><tr><td style="font-weight:bold;vertical-align:top;">utcnow</td><td style="vertical-align:top;">:</td><td><div>datetime.datetime(2016, 3, 8, 13, 6, 35, 352961)</div></td></tr><tr><td style="font-weight:bold;vertical-align:top;">wsgi</td><td style="vertical-align:top;">:</td><td><div>&lt;gluon.main.LazyWSGI object at 0x118629a90&gt;</div></td></tr></table></div>'
tRp58
sS'frames'
p59
(lp60
(dp61
S'file'
p62
S'/Users/admin/web2py/gluon/restricted.py'
p63
sS'dump'
p64
(dp65
S'environment'
p66
S"{'A': <class 'gluon.html.A'>, 'ANY_OF': <class 'gluon.validators.ANY_OF'>, 'ASSIGNJS': <function ASSIGNJS>, 'AppConfig': <function AppConfig>, 'Auth': <class 'gluon.tools.Auth'>, 'B': <class 'gluon.html.B'>, 'BEAUTIFY': <class 'gluon.html.BEAUTIFY'>, 'BODY': <class 'gluon.html.BODY'>, 'BR': <class 'gluon.html.BR'>, 'BUTTON': <class 'gluon.html.BUTTON'>, ...}"
p67
sS'ccode'
p68
S'<code object <module> at 0x118652e30, file "/Use...lications/editex/controllers/compose.py", line 1>'
p69
ssS'lnum'
p70
I227
sS'lines'
p71
(dp72
I224
S'            ccode = code'
p73
sI225
S'        else:'
p74
sI226
S'            ccode = compile2(code, layer)'
p75
sI227
S'        exec ccode in environment'
p76
sI228
S'    except HTTP:'
p77
sI229
S'        raise'
p78
sI230
S'    except RestrictedError:'
p79
sI231
S'        # do not encapsulate (obfuscate) the original RestrictedError'
p80
sI222
S'    try:'
p81
sI223
S'        if isinstance(code, types.CodeType):'
p82
ssS'call'
p83
S"(code='@auth.requires_login()\\ndef index():\\n    print\\n  ...s=rows)\\nresponse._vars=response._caller(descend)\\n', environment={'A': <class 'gluon.html.A'>, 'ANY_OF': <class 'gluon.validators.ANY_OF'>, 'ASSIGNJS': <function ASSIGNJS>, 'AppConfig': <function AppConfig>, 'Auth': <class 'gluon.tools.Auth'>, 'B': <class 'gluon.html.B'>, 'BEAUTIFY': <class 'gluon.html.BEAUTIFY'>, 'BODY': <class 'gluon.html.BODY'>, 'BR': <class 'gluon.html.BR'>, 'BUTTON': <class 'gluon.html.BUTTON'>, ...}, layer='/Users/admin/web2py/applications/editex/controllers/compose.py')"
p84
sS'func'
p85
S'restricted'
p86
sa(dp87
g62
S'/Users/admin/web2py/applications/editex/controllers/compose.py'
p88
sg64
(dp89
sg70
I127
sg71
(dp90
I117
S'    print request.args(0)'
p91
sI118
S'    row    =    db(db.segment.id==request.args(0)).select().first()'
p92
sI119
S'    print row'
p93
sI120
S'    session.cur_tier    =    row.tier    +    1'
p94
sI121
S'    seession.cur_pos    =    row.pos(cast=int)    +    10^(-tier)'
p95
sI122
S'    return    dict()'
p96
sI123
S''
sI124
S'def    list_nodes():'
p97
sI125
S"    rows    =    db(db.segment.id>0).select(orderby='pos')"
p98
sI126
S'    return    dict(rows=rows)'
p99
ssg83
S'()'
p100
sg85
S'<module>'
p101
sa(dp102
g62
S'/Users/admin/web2py/gluon/globals.py'
p103
sg64
(dp104
S'self'
p105
S'undefined'
p106
sS'f'
S'<function descend>'
p107
ssg70
I412
sg71
(dp108
I416
S"        self.generic_patterns = ['*']"
p109
sI407
S"        self.flash = ''            # used by the default view layout"
p110
sI408
S'        self.meta = Storage()      # used by web2py_ajax.html'
p111
sI409
S'        self.menu = []             # used by the default view layout'
p112
sI410
S'        self.files = []            # used by web2py_ajax.html'
p113
sI411
S'        self._vars = None'
p114
sI412
S'        self._caller = lambda f: f()'
p115
sI413
S'        self._view_environment = None'
p116
sI414
S'        self._custom_commit = None'
p117
sI415
S'        self._custom_rollback = None'
p118
ssg83
S'(f=<function descend>)'
p119
sg85
S'<lambda>'
p120
sa(dp121
g62
S'/Users/admin/web2py/applications/editex/controllers/compose.py'
p122
sg64
(dp123
S'global request'
p124
S"<Storage {'_vars': None, 'function': 'descend', ...er': '/Users/admin/web2py/applications/editex/'}>"
p125
sS').select'
p126
g106
sS'request.args'
p127
S"['1']"
p128
sS'db.segment.id'
p129
S'<pydal.objects.Field object>'
p130
sS'global db'
p131
S'<DAL uri="sqlite://storage.sqlite">'
p132
sS'db.segment'
p133
S'<Table segment (id,body,category,meta_id,tier,root,parent,pos,image,status,owned_by)>'
p134
sS'row'
p135
g106
ssg70
I118
sg71
(dp136
I113
S'    seession.cur_pos    =    row.pos    +    10^(-tier)'
p137
sI114
S'    return    dict()'
p138
sI115
S''
sI116
S'def    descend():'
p139
sI117
S'    print request.args(0)'
p140
sI118
S'    row    =    db(db.segment.id==request.args(0)).select().first()'
p141
sI119
S'    print row'
p142
sI120
S'    session.cur_tier    =    row.tier    +    1'
p143
sI121
S'    seession.cur_pos    =    row.pos(cast=int)    +    10^(-tier)'
p144
sI122
S'    return    dict()'
p145
ssg83
S'()'
p146
sg85
S'descend'
p147
sa(dp148
g62
S'/Library/Python/2.7/site-packages/pydal/objects.py'
p149
sg64
(dp150
S'self.query'
p151
S'<Query (segment.id = 1)>'
p152
sS'adapter.select'
p153
S'<bound method SQLiteAdapter.select of <pydal.adapters.sqlite.SQLiteAdapter object>>'
p154
sS'fields'
p155
S'[<pydal.objects.Field object>, <pydal.objects.Field object>, <pydal.objects.Field object>, <pydal.objects.Field object>, <pydal.objects.Field object>, <pydal.objects.Field object>, <pydal.objects.Field object>, <pydal.objects.Field object>, <pydal.objects.Field object>, <pydal.objects.Field object>, <pydal.objects.Field object>]'
p156
sS'adapter'
p157
S'<pydal.adapters.sqlite.SQLiteAdapter object>'
p158
sS'attributes'
p159
g45
sS'self'
p160
S'<Set (segment.id = 1)>'
p161
ssg70
I1986
sg71
(dp162
I1984
S"                                    attributes.get('groupby',None))"
p163
sI1985
S'        fields = adapter.expand_all(fields, tablenames)'
p164
sI1986
S'        return adapter.select(self.query,fields,attributes)'
p165
sI1987
S''
sI1988
S'    def iterselect(self, *fields, **attributes):'
p166
sI1989
S'        adapter = self.db._adapter'
p167
sI1990
S'        tablenames = adapter.tables(self.query,'
p168
sI1981
S"                                    attributes.get('join',None),"
p169
sI1982
S"                                    attributes.get('left',None),"
p170
sI1983
S"                                    attributes.get('orderby',None),"
p171
ssg83
S'(self=<Set (segment.id = 1)>, *fields=[<pydal.objects.Field object>, <pydal.objects.Field object>, <pydal.objects.Field object>, <pydal.objects.Field object>, <pydal.objects.Field object>, <pydal.objects.Field object>, <pydal.objects.Field object>, <pydal.objects.Field object>, <pydal.objects.Field object>, <pydal.objects.Field object>, <pydal.objects.Field object>], **attributes={})'
p172
sg85
S'select'
p173
sa(dp174
g62
S'/Library/Python/2.7/site-packages/pydal/adapters/sqlite.py'
p175
sg64
(dp176
S'fields'
p177
S'[<pydal.objects.Field object>, <pydal.objects.Field object>, <pydal.objects.Field object>, <pydal.objects.Field object>, <pydal.objects.Field object>, <pydal.objects.Field object>, <pydal.objects.Field object>, <pydal.objects.Field object>, <pydal.objects.Field object>, <pydal.objects.Field object>, <pydal.objects.Field object>]'
p178
sS'self'
p179
S'<pydal.adapters.sqlite.SQLiteAdapter object>'
p180
sS').select'
p181
S'<bound method SQLiteAdapter.select of <pydal.adapters.sqlite.SQLiteAdapter object>>'
p182
sS'attributes'
p183
g45
sS'global SQLiteAdapter'
p184
S"<class 'pydal.adapters.sqlite.SQLiteAdapter'>"
p185
sS'query'
p186
S'<Query (segment.id = 1)>'
p187
sS'builtinsuper'
p188
S"<type 'super'>"
p189
ssg70
I122
sg71
(dp190
I117
S'        Note that the entire database, rather than one record, is locked'
p191
sI118
S'        (it will be locked eventually anyway by the following UPDATE).'
p192
sI119
S'        """'
p193
sI120
S"        if attributes.get('for_update', False) and not 'cache' in attributes:"
p194
sI121
S"            self.execute('BEGIN IMMEDIATE TRANSACTION;')"
p195
sI122
S'        return super(SQLiteAdapter, self).select(query, fields, attributes)'
p196
sI123
S''
sI124
S''
sI125
S'SPATIALLIBS = {'
p197
sI126
S"    'Windows':'libspatialite',"
p198
ssg83
S'(self=<pydal.adapters.sqlite.SQLiteAdapter object>, query=<Query (segment.id = 1)>, fields=[<pydal.objects.Field object>, <pydal.objects.Field object>, <pydal.objects.Field object>, <pydal.objects.Field object>, <pydal.objects.Field object>, <pydal.objects.Field object>, <pydal.objects.Field object>, <pydal.objects.Field object>, <pydal.objects.Field object>, <pydal.objects.Field object>, <pydal.objects.Field object>], attributes={})'
p199
sg85
g173
sa(dp200
g62
S'/Library/Python/2.7/site-packages/pydal/adapters/base.py'
p201
sg64
(dp202
S'fields'
p203
S'[<pydal.objects.Field object>, <pydal.objects.Field object>, <pydal.objects.Field object>, <pydal.objects.Field object>, <pydal.objects.Field object>, <pydal.objects.Field object>, <pydal.objects.Field object>, <pydal.objects.Field object>, <pydal.objects.Field object>, <pydal.objects.Field object>, <pydal.objects.Field object>]'
p204
sS'self'
p205
S'<pydal.adapters.sqlite.SQLiteAdapter object>'
p206
sS'attributes'
p207
g45
sS'self._select_aux'
p208
S'<bound method SQLiteAdapter._select_aux of <pydal.adapters.sqlite.SQLiteAdapter object>>'
p209
sS'sql'
p210
S"'SELECT  segment.id, segment.body, segment.catego...ent.owned_by FROM segment WHERE (segment.id = 1);'"
p211
ssg70
I1258
sg71
(dp212
I1253
S'            return cache_model('
p213
sI1254
S'                key,'
p214
sI1255
S'                lambda self=self,args=args:self._select_aux(*args),'
p215
sI1256
S'                time_expire)'
p216
sI1257
S'        else:'
p217
sI1258
S'            return self._select_aux(sql,fields,attributes)'
p218
sI1259
S''
sI1260
S'    def iterselect(self, query, fields, attributes):'
p219
sI1261
S'        sql = self._select(query, fields, attributes)'
p220
sI1262
S"        cacheable = attributes.get('cacheable', False)"
p221
ssg83
S'(self=<pydal.adapters.sqlite.SQLiteAdapter object>, query=<Query (segment.id = 1)>, fields=[<pydal.objects.Field object>, <pydal.objects.Field object>, <pydal.objects.Field object>, <pydal.objects.Field object>, <pydal.objects.Field object>, <pydal.objects.Field object>, <pydal.objects.Field object>, <pydal.objects.Field object>, <pydal.objects.Field object>, <pydal.objects.Field object>, <pydal.objects.Field object>], attributes={})'
p222
sg85
g173
sa(dp223
g62
S'/Library/Python/2.7/site-packages/pydal/adapters/base.py'
p224
sg64
(dp225
S'rows'
p226
S"[(1, u'title', u'title', u'', 0, 0, u'', u'', u'', u'active', u'1')]"
p227
sS'fields'
p228
S'[<pydal.objects.Field object>, <pydal.objects.Field object>, <pydal.objects.Field object>, <pydal.objects.Field object>, <pydal.objects.Field object>, <pydal.objects.Field object>, <pydal.objects.Field object>, <pydal.objects.Field object>, <pydal.objects.Field object>, <pydal.objects.Field object>, <pydal.objects.Field object>]'
p229
sS'self'
p230
S'<pydal.adapters.sqlite.SQLiteAdapter object>'
p231
sS'cacheable'
p232
S'False'
p233
sS'self._colnames'
p234
S"['segment.id', 'segment.body', 'segment.category', 'segment.meta_id', 'segment.tier', 'segment.root', 'segment.parent', 'segment.pos', 'segment.image', 'segment.status', 'segment.owned_by']"
p235
sS'processor'
p236
S'<bound method SQLiteAdapter.parse of <pydal.adapters.sqlite.SQLiteAdapter object>>'
p237
ssg70
I1239
sg71
(dp238
I1234
S'            rows = list(rows)'
p239
sI1235
S"        limitby = args_get('limitby', None) or (0,)"
p240
sI1236
S'        rows = self.rowslice(rows,limitby[0],None)'
p241
sI1237
S"        processor = args_get('processor', self.parse)"
p242
sI1238
S"        cacheable = args_get('cacheable',False)"
p243
sI1239
S'        return processor(rows,fields,self._colnames,cacheable=cacheable)'
p244
sI1240
S''
sI1241
S'    def select(self, query, fields, attributes):'
p245
sI1242
S'        """'
p246
sI1243
S'        Always returns a Rows object, possibly empty.'
p247
ssg83
S"(self=<pydal.adapters.sqlite.SQLiteAdapter object>, sql='SELECT  segment.id, segment.body, segment.catego...ent.owned_by FROM segment WHERE (segment.id = 1);', fields=[<pydal.objects.Field object>, <pydal.objects.Field object>, <pydal.objects.Field object>, <pydal.objects.Field object>, <pydal.objects.Field object>, <pydal.objects.Field object>, <pydal.objects.Field object>, <pydal.objects.Field object>, <pydal.objects.Field object>, <pydal.objects.Field object>, <pydal.objects.Field object>], attributes={})"
p248
sg85
S'_select_aux'
p249
sa(dp250
g62
S'/Library/Python/2.7/site-packages/pydal/adapters/base.py'
p251
sg64
(dp252
S'fields_virtual'
p253
S"{'segment': []}"
p254
sS'fields_lazy'
p255
S"{'segment': []}"
p256
ssg70
I1716
sg71
(dp257
I1711
S'        new_rows = []'
p258
sI1712
S'        (fields_virtual, fields_lazy, tmps) = self._parse_expand_colnames(colnames)'
p259
sI1713
S'        for row in rows:'
p260
sI1714
S'            new_row = self._parse(row, tmps, fields,'
p261
sI1715
S'                                  colnames, blob_decode, cacheable,'
p262
sI1716
S'                                  fields_virtual, fields_lazy)'
p263
sI1717
S'            new_rows.append(new_row)'
p264
sI1718
S'        rowsobj = Rows(self.db, new_rows, colnames, rawrows=rows)'
p265
sI1719
S''
sI1720
S'        # Old stype virtual fields'
p266
ssg83
S"(self=<pydal.adapters.sqlite.SQLiteAdapter object>, rows=[(1, u'title', u'title', u'', 0, 0, u'', u'', u'', u'active', u'1')], fields=[<pydal.objects.Field object>, <pydal.objects.Field object>, <pydal.objects.Field object>, <pydal.objects.Field object>, <pydal.objects.Field object>, <pydal.objects.Field object>, <pydal.objects.Field object>, <pydal.objects.Field object>, <pydal.objects.Field object>, <pydal.objects.Field object>, <pydal.objects.Field object>], colnames=['segment.id', 'segment.body', 'segment.category', 'segment.meta_id', 'segment.tier', 'segment.root', 'segment.parent', 'segment.pos', 'segment.image', 'segment.status', 'segment.owned_by'], blob_decode=True, cacheable=False)"
p267
sg85
S'parse'
p268
sa(dp269
g62
S'/Library/Python/2.7/site-packages/pydal/adapters/base.py'
p270
sg64
(dp271
S'blob_decode'
p272
S'True'
p273
sS'self'
p274
S'<pydal.adapters.sqlite.SQLiteAdapter object>'
p275
sS'ft'
p276
S"'double'"
p277
sS'value'
p278
S"u''"
p279
sS'self.parse_value'
p280
S'<bound method SQLiteAdapter.parse_value of <pydal.adapters.sqlite.SQLiteAdapter object>>'
p281
ssg70
I1629
sg71
(dp282
I1632
S'                colset[fieldname] = value'
p283
sI1633
S''
sI1624
S'                (tablename,fieldname,table,field,ft) = tmp'
p284
sI1625
S'                colset = new_row.get(tablename, None)'
p285
sI1626
S'                if colset is None:'
p286
sI1627
S'                    colset = new_row[tablename] = Row()'
p287
sI1628
S''
sI1629
S'                value = self.parse_value(value,ft,blob_decode)'
p288
sI1630
S'                if field.filter_out:'
p289
sI1631
S'                    value = field.filter_out(value)'
p290
ssg83
S"(self=<pydal.adapters.sqlite.SQLiteAdapter object>, row=(1, u'title', u'title', u'', 0, 0, u'', u'', u'', u'active', u'1'), tmps=[('segment', 'id', <Table segment (id,body,category,meta_id,tier,root,parent,pos,image,status,owned_by)>, <pydal.objects.Field object>, 'id'), ('segment', 'body', <Table segment (id,body,category,meta_id,tier,root,parent,pos,image,status,owned_by)>, <pydal.objects.Field object>, 'text'), ('segment', 'category', <Table segment (id,body,category,meta_id,tier,root,parent,pos,image,status,owned_by)>, <pydal.objects.Field object>, 'string'), ('segment', 'meta_id', <Table segment (id,body,category,meta_id,tier,root,parent,pos,image,status,owned_by)>, <pydal.objects.Field object>, 'string'), ('segment', 'tier', <Table segment (id,body,category,meta_id,tier,root,parent,pos,image,status,owned_by)>, <pydal.objects.Field object>, 'integer'), ('segment', 'root', <Table segment (id,body,category,meta_id,tier,root,parent,pos,image,status,owned_by)>, <pydal.objects.Field object>, 'integer'), ('segment', 'parent', <Table segment (id,body,category,meta_id,tier,root,parent,pos,image,status,owned_by)>, <pydal.objects.Field object>, 'string'), ('segment', 'pos', <Table segment (id,body,category,meta_id,tier,root,parent,pos,image,status,owned_by)>, <pydal.objects.Field object>, 'double'), ('segment', 'image', <Table segment (id,body,category,meta_id,tier,root,parent,pos,image,status,owned_by)>, <pydal.objects.Field object>, 'upload'), ('segment', 'status', <Table segment (id,body,category,meta_id,tier,root,parent,pos,image,status,owned_by)>, <pydal.objects.Field object>, 'string'), ('segment', 'owned_by', <Table segment (id,body,category,meta_id,tier,root,parent,pos,image,status,owned_by)>, <pydal.objects.Field object>, 'string')], fields=[<pydal.objects.Field object>, <pydal.objects.Field object>, <pydal.objects.Field object>, <pydal.objects.Field object>, <pydal.objects.Field object>, <pydal.objects.Field object>, <pydal.objects.Field object>, <pydal.objects.Field object>, <pydal.objects.Field object>, <pydal.objects.Field object>, <pydal.objects.Field object>], colnames=['segment.id', 'segment.body', 'segment.category', 'segment.meta_id', 'segment.tier', 'segment.root', 'segment.parent', 'segment.pos', 'segment.image', 'segment.status', 'segment.owned_by'], blob_decode=True, cacheable=False, fields_virtual={'segment': []}, fields_lazy={'segment': []})"
p291
sg85
S'_parse'
p292
sa(dp293
g62
S'/Library/Python/2.7/site-packages/pydal/adapters/base.py'
p294
sg64
(dp295
S'field_type'
p296
S"'double'"
p297
sS'self'
p298
S'<pydal.adapters.sqlite.SQLiteAdapter object>'
p299
sS'self.parsemap'
p300
S"{'bigint': <bound method SQLiteAdapter.parse_integer of <pydal.adapters.sqlite.SQLiteAdapter object>>, 'blob': <bound method SQLiteAdapter.parse_blob of <pydal.adapters.sqlite.SQLiteAdapter object>>, 'boolean': <bound method SQLiteAdapter.parse_boolean of <pydal.adapters.sqlite.SQLiteAdapter object>>, 'date': <bound method SQLiteAdapter.parse_date of <pydal.adapters.sqlite.SQLiteAdapter object>>, 'datetime': <bound method SQLiteAdapter.parse_datetime of <pydal.adapters.sqlite.SQLiteAdapter object>>, 'decimal': <bound method SQLiteAdapter.parse_decimal of <pydal.adapters.sqlite.SQLiteAdapter object>>, 'double': <bound method SQLiteAdapter.parse_double of <pydal.adapters.sqlite.SQLiteAdapter object>>, 'float': <bound method SQLiteAdapter.parse_double of <pydal.adapters.sqlite.SQLiteAdapter object>>, 'id': <bound method SQLiteAdapter.parse_id of <pydal.adapters.sqlite.SQLiteAdapter object>>, 'integer': <bound method SQLiteAdapter.parse_integer of <pydal.adapters.sqlite.SQLiteAdapter object>>, ...}"
p301
sS'value'
p302
S"''"
p303
sS'key'
p304
S"'double'"
p305
ssg70
I1486
sg71
(dp306
I1481
S'            return value'
p307
sI1482
S"        elif field_type == 'blob' and not blob_decode:"
p308
sI1483
S'            return value'
p309
sI1484
S'        else:'
p310
sI1485
S'            key = REGEX_TYPE.match(field_type).group(0)'
p311
sI1486
S'            return self.parsemap[key](value,field_type)'
p312
sI1487
S''
sI1488
S'    def parse_reference(self, value, field_type):'
p313
sI1489
S'        referee = field_type[10:].strip()'
p314
sI1490
S"        if not '.' in referee:"
p315
ssg83
S"(self=<pydal.adapters.sqlite.SQLiteAdapter object>, value='', field_type='double', blob_decode=True)"
p316
sg85
S'parse_value'
p317
sa(dp318
g62
S'/Library/Python/2.7/site-packages/pydal/adapters/base.py'
p319
sg64
(dp320
S'builtinfloat'
p321
S"<type 'float'>"
p322
sS'value'
p323
S"''"
p324
ssg70
I1582
sg71
(dp325
I1577
S''
sI1578
S'    def parse_integer(self, value, field_type):'
p326
sI1579
S'        return long(value)'
p327
sI1580
S''
sI1581
S'    def parse_double(self, value, field_type):'
p328
sI1582
S'        return float(value)'
p329
sI1583
S''
sI1584
S'    def parse_json(self, value, field_type):'
p330
sI1585
S"        if not 'loads' in self.driver_auto_json:"
p331
sI1586
S'            if not isinstance(value, basestring):'
p332
ssg83
S"(self=<pydal.adapters.sqlite.SQLiteAdapter object>, value='', field_type='double')"
p333
sg85
S'parse_double'
p334
sasS'pyver'
p335
S'Python 2.7.10: /usr/bin/python (prefix: /System/Library/Frameworks/Python.framework/Versions/2.7)'
p336
sS'session'
p337
g57
(S's\x10\x0b\x00\x00<div><table><tr><td style="font-weight:bold;vertical-align:top;">auth</td><td style="vertical-align:top;">:</td><td><div><table><tr><td style="font-weight:bold;vertical-align:top;">expiration</td><td style="vertical-align:top;">:</td><td><div>2592000</div></td></tr><tr><td style="font-weight:bold;vertical-align:top;">hmac_key</td><td style="vertical-align:top;">:</td><td><div>a985e7a3-8103-42b9-8621-bb399bd654a2</div></td></tr><tr><td style="font-weight:bold;vertical-align:top;">last_visit</td><td style="vertical-align:top;">:</td><td><div>datetime.datetime(2016, 3, 7, 13, 12, 34, 870614)</div></td></tr><tr><td style="font-weight:bold;vertical-align:top;">remember_me</td><td style="vertical-align:top;">:</td><td><div>True</div></td></tr><tr><td style="font-weight:bold;vertical-align:top;">user</td><td style="vertical-align:top;">:</td><td><div><table><tr><td style="font-weight:bold;vertical-align:top;">email</td><td style="vertical-align:top;">:</td><td><div>jeanpaulsc@gmail.com</div></td></tr><tr><td style="font-weight:bold;vertical-align:top;">first_name</td><td style="vertical-align:top;">:</td><td><div>Jean-Paul</div></td></tr><tr><td style="font-weight:bold;vertical-align:top;">id</td><td style="vertical-align:top;">:</td><td><div>1L</div></td></tr><tr><td style="font-weight:bold;vertical-align:top;">last_name</td><td style="vertical-align:top;">:</td><td><div>McCoy</div></td></tr><tr><td style="font-weight:bold;vertical-align:top;">registration_id</td><td style="vertical-align:top;">:</td><td><div></div></td></tr><tr><td style="font-weight:bold;vertical-align:top;">registration_key</td><td style="vertical-align:top;">:</td><td><div></div></td></tr><tr><td style="font-weight:bold;vertical-align:top;">reset_password_key</td><td style="vertical-align:top;">:</td><td><div></div></td></tr></table></div></td></tr><tr><td style="font-weight:bold;vertical-align:top;">user_groups</td><td style="vertical-align:top;">:</td><td><div><table><tr><td style="font-weight:bold;vertical-align:top;">1</td><td style="vertical-align:top;">:</td><td><div>user_1</div></td></tr><tr><td style="font-weight:bold;vertical-align:top;">2</td><td style="vertical-align:top;">:</td><td><div>pupils</div></td></tr></table></div></td></tr></table></div></td></tr><tr><td style="font-weight:bold;vertical-align:top;">cur_tier</td><td style="vertical-align:top;">:</td><td><div>0</div></td></tr><tr><td style="font-weight:bold;vertical-align:top;">flash</td><td style="vertical-align:top;">:</td><td><div>None</div></td></tr><tr><td style="font-weight:bold;vertical-align:top;">last_orderby</td><td style="vertical-align:top;">:</td><td><div>None</div></td></tr><tr><td style="font-weight:bold;vertical-align:top;">last_query</td><td style="vertical-align:top;">:</td><td><div>db.segment.id&gt;0</div></td></tr></table></div>'
tRp338
sS'etype'
p339
S"<type 'exceptions.ValueError'>"
p340
sS'date'
p341
S'Tue Mar  8 05:06:35 2016'
p342
sS'response'
p343
g57
(S'sq?\x00\x00<div><table><tr><td style="font-weight:bold;vertical-align:top;">body</td><td style="vertical-align:top;">:</td><td><div>&lt;cStringIO.StringO object at 0x118237ce0&gt;</div></td></tr><tr><td style="font-weight:bold;vertical-align:top;">cookies</td><td style="vertical-align:top;">:</td><td><div><table><tr><td style="font-weight:bold;vertical-align:top;">session_id_editex</td><td style="vertical-align:top;">:</td><td><div>127.0.0.1-780aeb25-9f9c-4573-8f39-3add00357357<table><tr><td style="font-weight:bold;vertical-align:top;">comment</td><td style="vertical-align:top;">:</td><td><div></div></td></tr><tr><td style="font-weight:bold;vertical-align:top;">domain</td><td style="vertical-align:top;">:</td><td><div></div></td></tr><tr><td style="font-weight:bold;vertical-align:top;">expires</td><td style="vertical-align:top;">:</td><td><div></div></td></tr><tr><td style="font-weight:bold;vertical-align:top;">httponly</td><td style="vertical-align:top;">:</td><td><div></div></td></tr><tr><td style="font-weight:bold;vertical-align:top;">max-age</td><td style="vertical-align:top;">:</td><td><div></div></td></tr><tr><td style="font-weight:bold;vertical-align:top;">path</td><td style="vertical-align:top;">:</td><td><div>/</div></td></tr><tr><td style="font-weight:bold;vertical-align:top;">secure</td><td style="vertical-align:top;">:</td><td><div></div></td></tr><tr><td style="font-weight:bold;vertical-align:top;">version</td><td style="vertical-align:top;">:</td><td><div></div></td></tr></table></div></td></tr></table></div></td></tr><tr><td style="font-weight:bold;vertical-align:top;">delimiters</td><td style="vertical-align:top;">:</td><td><div><table><tr><td><div>{{</div></td></tr><tr><td><div>}}</div></td></tr></table></div></td></tr><tr><td style="font-weight:bold;vertical-align:top;">files</td><td style="vertical-align:top;">:</td><td><div><table></table></div></td></tr><tr><td style="font-weight:bold;vertical-align:top;">flash</td><td style="vertical-align:top;">:</td><td><div></div></td></tr><tr><td style="font-weight:bold;vertical-align:top;">form_label_separator</td><td style="vertical-align:top;">:</td><td><div></div></td></tr><tr><td style="font-weight:bold;vertical-align:top;">formstyle</td><td style="vertical-align:top;">:</td><td><div>bootstrap3_inline</div></td></tr><tr><td style="font-weight:bold;vertical-align:top;">generic_patterns</td><td style="vertical-align:top;">:</td><td><div><table><tr><td><div>*</div></td></tr></table></div></td></tr><tr><td style="font-weight:bold;vertical-align:top;">google_analytics_id</td><td style="vertical-align:top;">:</td><td><div>None</div></td></tr><tr><td style="font-weight:bold;vertical-align:top;">headers</td><td style="vertical-align:top;">:</td><td><div><table><tr><td style="font-weight:bold;vertical-align:top;">X-Powered-By</td><td style="vertical-align:top;">:</td><td><div>web2py</div></td></tr></table></div></td></tr><tr><td style="font-weight:bold;vertical-align:top;">logo</td><td style="vertical-align:top;">:</td><td><div><a class="navbar-brand" href="http://www.web2py.com/" id="web2py-logo"><b>web<span>2</span>py</b>&trade;&nbsp;</a></div></td></tr><tr><td style="font-weight:bold;vertical-align:top;">menu</td><td style="vertical-align:top;">:</td><td><div><table><tr><td><div><table><tr><td><div>Home</div></td></tr><tr><td><div>False</div></td></tr><tr><td><div>/editex/default/index</div></td></tr><tr><td><div><table></table></div></td></tr></table></div></td></tr><tr><td><div><table><tr><td><div>My Sites</div></td></tr><tr><td><div>False</div></td></tr><tr><td><div>/admin/default/site</div></td></tr></table></div></td></tr><tr><td><div><table><tr><td><div>This App</div></td></tr><tr><td><div>False</div></td></tr><tr><td><div>#</div></td></tr><tr><td><div><table><tr><td><div><table><tr><td><div>Design</div></td></tr><tr><td><div>False</div></td></tr><tr><td><div>/admin/default/design/editex</div></td></tr></table></div></td></tr><tr><td><div><li class="divider"></li></div></td></tr><tr><td><div><table><tr><td><div>Controller</div></td></tr><tr><td><div>False</div></td></tr><tr><td><div>/admin/default/edit/editex/controllers/compose.py</div></td></tr></table></div></td></tr><tr><td><div><table><tr><td><div>View</div></td></tr><tr><td><div>False</div></td></tr><tr><td><div>/admin/default/edit/editex/views/compose/descend.html</div></td></tr></table></div></td></tr><tr><td><div><table><tr><td><div>DB Model</div></td></tr><tr><td><div>False</div></td></tr><tr><td><div>/admin/default/edit/editex/models/db.py</div></td></tr></table></div></td></tr><tr><td><div><table><tr><td><div>Menu Model</div></td></tr><tr><td><div>False</div></td></tr><tr><td><div>/admin/default/edit/editex/models/menu.py</div></td></tr></table></div></td></tr><tr><td><div><table><tr><td><div>Config.ini</div></td></tr><tr><td><div>False</div></td></tr><tr><td><div>/admin/default/edit/editex/private/appconfig.ini</div></td></tr></table></div></td></tr><tr><td><div><table><tr><td><div>Layout</div></td></tr><tr><td><div>False</div></td></tr><tr><td><div>/admin/default/edit/editex/views/layout.html</div></td></tr></table></div></td></tr><tr><td><div><table><tr><td><div>Stylesheet</div></td></tr><tr><td><div>False</div></td></tr><tr><td><div>/admin/default/edit/editex/static/css/web2py-bootstrap3.css</div></td></tr></table></div></td></tr><tr><td><div><table><tr><td><div>Database</div></td></tr><tr><td><div>False</div></td></tr><tr><td><div>/editex/appadmin/index</div></td></tr></table></div></td></tr><tr><td><div><table><tr><td><div>Errors</div></td></tr><tr><td><div>False</div></td></tr><tr><td><div>/admin/default/errors/editex</div></td></tr></table></div></td></tr><tr><td><div><table><tr><td><div>About</div></td></tr><tr><td><div>False</div></td></tr><tr><td><div>/admin/default/about/editex</div></td></tr></table></div></td></tr></table></div></td></tr></table></div></td></tr><tr><td><div><table><tr><td><div>web2py.com</div></td></tr><tr><td><div>False</div></td></tr><tr><td><div>#</div></td></tr><tr><td><div><table><tr><td><div><table><tr><td><div>Download</div></td></tr><tr><td><div>False</div></td></tr><tr><td><div>http://www.web2py.com/examples/default/download</div></td></tr></table></div></td></tr><tr><td><div><table><tr><td><div>Support</div></td></tr><tr><td><div>False</div></td></tr><tr><td><div>http://www.web2py.com/examples/default/support</div></td></tr></table></div></td></tr><tr><td><div><table><tr><td><div>Demo</div></td></tr><tr><td><div>False</div></td></tr><tr><td><div>http://web2py.com/demo_admin</div></td></tr></table></div></td></tr><tr><td><div><table><tr><td><div>Quick Examples</div></td></tr><tr><td><div>False</div></td></tr><tr><td><div>http://web2py.com/examples/default/examples</div></td></tr></table></div></td></tr><tr><td><div><table><tr><td><div>FAQ</div></td></tr><tr><td><div>False</div></td></tr><tr><td><div>http://web2py.com/AlterEgo</div></td></tr></table></div></td></tr><tr><td><div><table><tr><td><div>Videos</div></td></tr><tr><td><div>False</div></td></tr><tr><td><div>http://www.web2py.com/examples/default/videos/</div></td></tr></table></div></td></tr><tr><td><div><table><tr><td><div>Free Applications</div></td></tr><tr><td><div>False</div></td></tr><tr><td><div>http://web2py.com/appliances</div></td></tr></table></div></td></tr><tr><td><div><table><tr><td><div>Plugins</div></td></tr><tr><td><div>False</div></td></tr><tr><td><div>http://web2py.com/plugins</div></td></tr></table></div></td></tr><tr><td><div><table><tr><td><div>Recipes</div></td></tr><tr><td><div>False</div></td></tr><tr><td><div>http://web2pyslices.com/</div></td></tr></table></div></td></tr></table></div></td></tr></table></div></td></tr><tr><td><div><table><tr><td><div>Documentation</div></td></tr><tr><td><div>False</div></td></tr><tr><td><div>#</div></td></tr><tr><td><div><table><tr><td><div><table><tr><td><div>Online book</div></td></tr><tr><td><div>False</div></td></tr><tr><td><div>http://www.web2py.com/book</div></td></tr></table></div></td></tr><tr><td><div><li class="divider"></li></div></td></tr><tr><td><div><table><tr><td><div>Preface</div></td></tr><tr><td><div>False</div></td></tr><tr><td><div>http://www.web2py.com/book/default/chapter/00</div></td></tr></table></div></td></tr><tr><td><div><table><tr><td><div>Introduction</div></td></tr><tr><td><div>False</div></td></tr><tr><td><div>http://www.web2py.com/book/default/chapter/01</div></td></tr></table></div></td></tr><tr><td><div><table><tr><td><div>Python</div></td></tr><tr><td><div>False</div></td></tr><tr><td><div>http://www.web2py.com/book/default/chapter/02</div></td></tr></table></div></td></tr><tr><td><div><table><tr><td><div>Overview</div></td></tr><tr><td><div>False</div></td></tr><tr><td><div>http://www.web2py.com/book/default/chapter/03</div></td></tr></table></div></td></tr><tr><td><div><table><tr><td><div>The Core</div></td></tr><tr><td><div>False</div></td></tr><tr><td><div>http://www.web2py.com/book/default/chapter/04</div></td></tr></table></div></td></tr><tr><td><div><table><tr><td><div>The Views</div></td></tr><tr><td><div>False</div></td></tr><tr><td><div>http://www.web2py.com/book/default/chapter/05</div></td></tr></table></div></td></tr><tr><td><div><table><tr><td><div>Database</div></td></tr><tr><td><div>False</div></td></tr><tr><td><div>http://www.web2py.com/book/default/chapter/06</div></td></tr></table></div></td></tr><tr><td><div><table><tr><td><div>Forms and Validators</div></td></tr><tr><td><div>False</div></td></tr><tr><td><div>http://www.web2py.com/book/default/chapter/07</div></td></tr></table></div></td></tr><tr><td><div><table><tr><td><div>Email and SMS</div></td></tr><tr><td><div>False</div></td></tr><tr><td><div>http://www.web2py.com/book/default/chapter/08</div></td></tr></table></div></td></tr><tr><td><div><table><tr><td><div>Access Control</div></td></tr><tr><td><div>False</div></td></tr><tr><td><div>http://www.web2py.com/book/default/chapter/09</div></td></tr></table></div></td></tr><tr><td><div><table><tr><td><div>Services</div></td></tr><tr><td><div>False</div></td></tr><tr><td><div>http://www.web2py.com/book/default/chapter/10</div></td></tr></table></div></td></tr><tr><td><div><table><tr><td><div>Ajax Recipes</div></td></tr><tr><td><div>False</div></td></tr><tr><td><div>http://www.web2py.com/book/default/chapter/11</div></td></tr></table></div></td></tr><tr><td><div><table><tr><td><div>Components and Plugins</div></td></tr><tr><td><div>False</div></td></tr><tr><td><div>http://www.web2py.com/book/default/chapter/12</div></td></tr></table></div></td></tr><tr><td><div><table><tr><td><div>Deployment Recipes</div></td></tr><tr><td><div>False</div></td></tr><tr><td><div>http://www.web2py.com/book/default/chapter/13</div></td></tr></table></div></td></tr><tr><td><div><table><tr><td><div>Other Recipes</div></td></tr><tr><td><div>False</div></td></tr><tr><td><div>http://www.web2py.com/book/default/chapter/14</div></td></tr></table></div></td></tr><tr><td><div><table><tr><td><div>Helping web2py</div></td></tr><tr><td><div>False</div></td></tr><tr><td><div>http://www.web2py.com/book/default/chapter/15</div></td></tr></table></div></td></tr><tr><td><div><table><tr><td><div>Buy web2py\'s book</div></td></tr><tr><td><div>False</div></td></tr><tr><td><div>http://stores.lulu.com/web2py</div></td></tr></table></div></td></tr></table></div></td></tr></table></div></td></tr><tr><td><div><table><tr><td><div>Community</div></td></tr><tr><td><div>False</div></td></tr><tr><td><div>None</div></td></tr><tr><td><div><table><tr><td><div><table><tr><td><div>Groups</div></td></tr><tr><td><div>False</div></td></tr><tr><td><div>http://www.web2py.com/examples/default/usergroups</div></td></tr></table></div></td></tr><tr><td><div><table><tr><td><div>Twitter</div></td></tr><tr><td><div>False</div></td></tr><tr><td><div>http://twitter.com/web2py</div></td></tr></table></div></td></tr><tr><td><div><table><tr><td><div>Live Chat</div></td></tr><tr><td><div>False</div></td></tr><tr><td><div>http://webchat.freenode.net/?channels=web2py</div></td></tr></table></div></td></tr></table></div></td></tr></table></div></td></tr></table></div></td></tr><tr><td style="font-weight:bold;vertical-align:top;">meta</td><td style="vertical-align:top;">:</td><td><div><table><tr><td style="font-weight:bold;vertical-align:top;">author</td><td style="vertical-align:top;">:</td><td><div>Your Name &lt;you@example.com&gt;</div></td></tr><tr><td style="font-weight:bold;vertical-align:top;">description</td><td style="vertical-align:top;">:</td><td><div>a cool new app</div></td></tr><tr><td style="font-weight:bold;vertical-align:top;">generator</td><td style="vertical-align:top;">:</td><td><div>Web2py Web Framework</div></td></tr><tr><td style="font-weight:bold;vertical-align:top;">keywords</td><td style="vertical-align:top;">:</td><td><div>web2py, python, framework</div></td></tr></table></div></td></tr><tr><td style="font-weight:bold;vertical-align:top;">models_to_run</td><td style="vertical-align:top;">:</td><td><div><table><tr><td><div>^\\w+\\.py$</div></td></tr><tr><td><div>^compose/\\w+\\.py$</div></td></tr><tr><td><div>^compose/descend/\\w+\\.py$</div></td></tr></table></div></td></tr><tr><td style="font-weight:bold;vertical-align:top;">postprocessing</td><td style="vertical-align:top;">:</td><td><div><table></table></div></td></tr><tr><td style="font-weight:bold;vertical-align:top;">session_client</td><td style="vertical-align:top;">:</td><td><div>127.0.0.1</div></td></tr><tr><td style="font-weight:bold;vertical-align:top;">session_cookie_compression_level</td><td style="vertical-align:top;">:</td><td><div>None</div></td></tr><tr><td style="font-weight:bold;vertical-align:top;">session_cookie_expires</td><td style="vertical-align:top;">:</td><td><div>2592000</div></td></tr><tr><td style="font-weight:bold;vertical-align:top;">session_cookie_key</td><td style="vertical-align:top;">:</td><td><div>None</div></td></tr><tr><td style="font-weight:bold;vertical-align:top;">session_data_name</td><td style="vertical-align:top;">:</td><td><div>session_data_editex</div></td></tr><tr><td style="font-weight:bold;vertical-align:top;">session_file</td><td style="vertical-align:top;">:</td><td><div>&lt;open file &#x27;/Users/admin/web2py/applications/editex/sessions/064/0c0/127.0.0.1-780aeb25-9f9c-4573-8f39-3add00357357&#x27;, mode &#x27;rb+&#x27; at 0x118232810&gt;</div></td></tr><tr><td style="font-weight:bold;vertical-align:top;">session_filename</td><td style="vertical-align:top;">:</td><td><div>/Users/admin/web2py/applications/editex/sessions/127.0.0.1-780aeb25-9f9c-4573-8f39-3add00357357</div></td></tr><tr><td style="font-weight:bold;vertical-align:top;">session_hash</td><td style="vertical-align:top;">:</td><td><div>451141ac0758ed6782fc78c0539e3964</div></td></tr><tr><td style="font-weight:bold;vertical-align:top;">session_id</td><td style="vertical-align:top;">:</td><td><div>127.0.0.1-780aeb25-9f9c-4573-8f39-3add00357357</div></td></tr><tr><td style="font-weight:bold;vertical-align:top;">session_id_name</td><td style="vertical-align:top;">:</td><td><div>session_id_editex</div></td></tr><tr><td style="font-weight:bold;vertical-align:top;">session_locked</td><td style="vertical-align:top;">:</td><td><div>True</div></td></tr><tr><td style="font-weight:bold;vertical-align:top;">session_masterapp</td><td style="vertical-align:top;">:</td><td><div>editex</div></td></tr><tr><td style="font-weight:bold;vertical-align:top;">session_new</td><td style="vertical-align:top;">:</td><td><div>False</div></td></tr><tr><td style="font-weight:bold;vertical-align:top;">session_storage_type</td><td style="vertical-align:top;">:</td><td><div>file</div></td></tr><tr><td style="font-weight:bold;vertical-align:top;">status</td><td style="vertical-align:top;">:</td><td><div>200</div></td></tr><tr><td style="font-weight:bold;vertical-align:top;">subtitle</td><td style="vertical-align:top;">:</td><td><div></div></td></tr><tr><td style="font-weight:bold;vertical-align:top;">title</td><td style="vertical-align:top;">:</td><td><div>Editex</div></td></tr><tr><td style="font-weight:bold;vertical-align:top;">view</td><td style="vertical-align:top;">:</td><td><div>compose/descend.html</div></td></tr></table></div>'
tRp344
sS'locals'
p345
(dp346
S'field_type'
p347
S"'double'"
p348
sS'self'
p349
S'<pydal.adapters.sqlite.SQLiteAdapter object>'
p350
sS'value'
p351
S"''"
p352
sssS'traceback'
p353
S'Traceback (most recent call last):\n  File "/Users/admin/web2py/gluon/restricted.py", line 227, in restricted\n    exec ccode in environment\n  File "/Users/admin/web2py/applications/editex/controllers/compose.py", line 127, in <module>\n  File "/Users/admin/web2py/gluon/globals.py", line 412, in <lambda>\n    self._caller = lambda f: f()\n  File "/Users/admin/web2py/applications/editex/controllers/compose.py", line 118, in descend\n    row    =    db(db.segment.id==request.args(0)).select().first()\n  File "/Library/Python/2.7/site-packages/pydal/objects.py", line 1986, in select\n    return adapter.select(self.query,fields,attributes)\n  File "/Library/Python/2.7/site-packages/pydal/adapters/sqlite.py", line 122, in select\n    return super(SQLiteAdapter, self).select(query, fields, attributes)\n  File "/Library/Python/2.7/site-packages/pydal/adapters/base.py", line 1258, in select\n    return self._select_aux(sql,fields,attributes)\n  File "/Library/Python/2.7/site-packages/pydal/adapters/base.py", line 1239, in _select_aux\n    return processor(rows,fields,self._colnames,cacheable=cacheable)\n  File "/Library/Python/2.7/site-packages/pydal/adapters/base.py", line 1716, in parse\n    fields_virtual, fields_lazy)\n  File "/Library/Python/2.7/site-packages/pydal/adapters/base.py", line 1629, in _parse\n    value = self.parse_value(value,ft,blob_decode)\n  File "/Library/Python/2.7/site-packages/pydal/adapters/base.py", line 1486, in parse_value\n    return self.parsemap[key](value,field_type)\n  File "/Library/Python/2.7/site-packages/pydal/adapters/base.py", line 1582, in parse_double\n    return float(value)\nValueError: could not convert string to float: \n'
p354
s.