(dp1
S'output'
p2
S"<type 'exceptions.AttributeError'> 'NoneType' object has no attribute 'tier'"
p3
sS'layer'
p4
S'/Users/admin/web2py/applications/editex/controllers/compose.py'
p5
sS'code'
p6
S'@auth.requires_login()\ndef index():\n    rows=db(db.segment.id>0).select(orderby=\'pos\')\n    if len(rows)>0:\n        return dict(rows=rows)\n    else:\n        return LOAD(\'compose\',\'new_section\')\n\n@auth.requires_login()\ndef auth_form():\n    form = SQLFORM(auth.user,record=4)\n    return dict(form=form)\n\n@auth.requires_login()\ndef new_document():\n    session.seg_cat = \'title\'\n    form=SQLFORM(db.document_root).process()\n    if form.process().accepted:\n        session.cur_group_id = form.vars.id\n        redirect(\'compose\',\'segtext\')\n    else:\n        response.flash="form has errors"\n    return dict(form=form,segs=db(db.segment.group_id==session.cur_group_id).select())\n\n@auth.requires_login()\ndef segtxt():\n    session.seg_cat = \'txt\'\n    if len(request.args)>0:\n        seg2edit = request.args(0,cast=int)\n        form=SQLFORM(db.segment,record=request.args(0,cast=int))\n    else:\n        seg2edit    =    0\n        form=SQLFORM(db.segment)\n    try:\n        segs    =    db(db.segment.group_id==session.cur_group_id).select()\n    except    Exception,    e:\n        response.flash="error:    %s"    %    e\n        redirect(\'compose\',\'index\')\n    if    form.process().accepted:\n        print    "txt    form    accepted"\n        redirect(URL(\'compose\',\'segments\'))\n    else:\n        print    \'error\'\n        response.flash=\'failure    to    insert    record\'\n    return    dict(form=form,segs=segs,seg2edit=seg2edit)\n\n@auth.requires_login()\ndef    segtex():\n    session.seg_cat    =    \'tex\'\n    if    len(request.args)>0:\n        seg2edit    =    request.args(0,cast=int)\n        form=SQLFORM(db.segment,record=request.args(0,cast=int))\n    else:\n        seg2edit    =    0\n        form=SQLFORM(db.segment)\n    try:\n        segs    =    db(db.segment.group_id==session.cur_group_id).select()\n    except    Exception,    e:\n        response.flash="error:    %s"    %    e\n        redirect(\'compose\',\'index\')\n    if    form.process().accepted:\n        print    "TeX    form    accepted"\n        redirect(URL(\'compose\',\'segments\'))\n    else:\n        print    \'error\'\n        response.flash=\'failure    to    insert    record\'\n    return    dict(form=form,segs=segs,seg2edit=seg2edit)\n\ndef    segment_entry():\n    rows    =    db(db.segmnent.root==session.cur_root_id).select(orderby=\'pos\')\n    return    dict()\n\n@auth.requires_login()\ndef    segimg():\n    session.seg_cat    =    \'img\'\n    if    len(request.args)>0:\n        seg2edit    =    request.args(0,cast=int)\n        form=SQLFORM(db.segment,record=request.args(0,cast=int))\n    else:\n        seg2edit    =    0\n    form=SQLFORM(db.segment,fields=\'image\')\n    try:\n        segs    =    db(db.segment.group_id==session.cur_group_id).select()\n    except    Exception,    e:\n        response.flash="error:    %s"    %    e\n        redirect(\'compose\',\'index\')\n    if    form.process().accepted:\n        print    "img    form    accepted"\n        redirect(URL(\'compose\',\'segments\'))\n    else:\n        print    \'error\'\n        response.flash=\'failure    to    insert    record\'\n    return    dict(form=form,segs=segs,seg2edit=seg2edit)\n\ndef new_section():\n    form=FORM(\'Enter New Section Title:\',\n              INPUT(_name=\'title\', requires=IS_NOT_EMPTY()),\n              INPUT(_type=\'submit\'))\n    if form.accepts(request,session):\n        id = db.segment.insert(body= form.vars.title,category=\'title\',root=\'this\')\n        session.cur_root = id\n        return LOAD(\'compose\',\'list_nodes\', ajax=True,target=\'contents\')\n    elif form.errors:\n        response.flash = \'form has errors\'\n    else:\n        response.flash = \'please fill the form\'\n    return dict(form=form)\n\ndef new_sectionOLD():\n    form    =    SQLFORM(db.segment,fields=[\'body\'])\n    if    form.accepts(request,    formname=None):\n        session.cur_root_id    =    form.vars.id\n        row    =    db(db.segment.id==form.vars.id).select().first()\n        row.update_record(root=session.cur_root_id,category=\'title\')\n\n        return    LOAD(\'compose\',\'segment_entry\',    ajax=True)\n    elif    form.errors:\n        return    TABLE(*[TR(k,    v)    for    k,    v    in    form.errors.items()])\n\ndef truncate(x, d):\n    return int(x*(10.0**d))/(10.0**d)\n\ndef append():\n    rows    =    db(db.segment.id==request.args(0)).select()\n    session.cur_tier    =    row.tier or 0\n    seession.cur_pos    =    row.pos + 10**(-tier)\n    form = SQLFORM(db.segments, fields=[\'body\'], formstyle=\'divs\',names={\'body\':""})\n    return    dict(form=form)\n\ndef insert():\n    print request.args(0)\n    search_id = request.args(0) or session.cur_root\n    row    =    db(db.segment.id==search_id).select().first()\n    print row\n    print \'double asterisk \',  10**(-row.tier)\n    session.cur_tier    =    row.tier    +    1\n    seession.cur_pos    =    row.pos    +    10**(-row.tier)\n    form = SQLFORM(db.segments, fields=[\'body\'], formstyle=\'divs\',names={\'body\':""})\n    return    dict(form=form)\n\ndef list_nodes():\n    rows    =    db(db.segment.id>0).select(orderby=\'pos\')\n    return    dict(rows=rows)\n\ndef outdent():\n    row = db(db.segment.id==request.args(0)).select().first()\n    if row.tier > 0:\n        tier = row.tier-1\n    else:\n        response.flash=\'selected row is not indented\'\n    pos = row.pos + 10**(-tier)\n    pos=truncate(pos,tier)\n    row.update_record(tier=tier,pos=pos)\n    return dict(id=row.id,tier=tier,pos=pos)\n\ndef indent():\n    row = db(db.segment.id==request.args(0)).select().first()\n    tier = row.tier+1\n    pos = row.pos + 10**(-tier)\n    pos=truncate(pos,tier)\n    row.update_record(tier=tier,pos=pos)\n    return dict(id=row.id,tier=tier,pos=pos)\n"""\ndef mcedit():\n    if len(request.args)>0:\n        row = db(db.segment.id==request.args(0)).select().first()\n    form=FORM(INPUT(_name=\'textarea\'), INPUT(_type=\'submit\'))\n    return dict(form=form)"""\n\ndef mcedit():\n    form=SQLFORM.factory(db.segment)\n    if form.process().accepted:\n        id = db.client.insert(**db.client._filter_fields(form.vars))\n        form.vars.client=id\nresponse._vars=response._caller(insert)\n'
p7
sS'snapshot'
p8
(dp9
S'exception'
p10
(dp11
S'__hash__'
p12
S"<method-wrapper '__hash__' of exceptions.AttributeError object>"
p13
sS'__setattr__'
p14
S"<method-wrapper '__setattr__' of exceptions.AttributeError object>"
p15
sS'__reduce_ex__'
p16
S'<built-in method __reduce_ex__ of exceptions.AttributeError object>'
p17
sS'__getslice__'
p18
S"<method-wrapper '__getslice__' of exceptions.AttributeError object>"
p19
sS'__getitem__'
p20
S"<method-wrapper '__getitem__' of exceptions.AttributeError object>"
p21
sS'__setstate__'
p22
S'<built-in method __setstate__ of exceptions.AttributeError object>'
p23
sS'args'
p24
S'("\'NoneType\' object has no attribute \'tier\'",)'
p25
sS'__reduce__'
p26
S'<built-in method __reduce__ of exceptions.AttributeError object>'
p27
sS'__str__'
p28
S"<method-wrapper '__str__' of exceptions.AttributeError object>"
p29
sS'__format__'
p30
S'<built-in method __format__ of exceptions.AttributeError object>'
p31
sS'__getattribute__'
p32
S"<method-wrapper '__getattribute__' of exceptions.AttributeError object>"
p33
sS'__class__'
p34
S"<type 'exceptions.AttributeError'>"
p35
sS'__unicode__'
p36
S'<built-in method __unicode__ of exceptions.AttributeError object>'
p37
sS'__delattr__'
p38
S"<method-wrapper '__delattr__' of exceptions.AttributeError object>"
p39
sS'__subclasshook__'
p40
S'<built-in method __subclasshook__ of type object>'
p41
sS'__repr__'
p42
S"<method-wrapper '__repr__' of exceptions.AttributeError object>"
p43
sS'__dict__'
p44
S'{}'
p45
sS'__sizeof__'
p46
S'<built-in method __sizeof__ of exceptions.AttributeError object>'
p47
sS'__doc__'
p48
S"'Attribute not found.'"
p49
sS'__init__'
p50
S"<method-wrapper '__init__' of exceptions.AttributeError object>"
p51
sS'__new__'
p52
S'<built-in method __new__ of type object>'
p53
ssS'evalue'
p54
S"'NoneType' object has no attribute 'tier'"
p55
sS'request'
p56
cgluon.html
XML_unpickle
p57
(S's\x8e\xb7\x00\x00<div><table><tr><td style="font-weight:bold;vertical-align:top;">ajax</td><td style="vertical-align:top;">:</td><td><div>False</div></td></tr><tr><td style="font-weight:bold;vertical-align:top;">application</td><td style="vertical-align:top;">:</td><td><div>editex</div></td></tr><tr><td style="font-weight:bold;vertical-align:top;">args</td><td style="vertical-align:top;">:</td><td><div><table></table></div></td></tr><tr><td style="font-weight:bold;vertical-align:top;">cid</td><td style="vertical-align:top;">:</td><td><div>c259696075288</div></td></tr><tr><td style="font-weight:bold;vertical-align:top;">client</td><td style="vertical-align:top;">:</td><td><div>127.0.0.1</div></td></tr><tr><td style="font-weight:bold;vertical-align:top;">controller</td><td style="vertical-align:top;">:</td><td><div>compose</div></td></tr><tr><td style="font-weight:bold;vertical-align:top;">cookies</td><td style="vertical-align:top;">:</td><td><div><table><tr><td style="font-weight:bold;vertical-align:top;">ajs_anonymous_id</td><td style="vertical-align:top;">:</td><td><div>%22c5ce07da-16c3-4f3a-b4fd-0a458506c7ad%22<table><tr><td style="font-weight:bold;vertical-align:top;">comment</td><td style="vertical-align:top;">:</td><td><div></div></td></tr><tr><td style="font-weight:bold;vertical-align:top;">domain</td><td style="vertical-align:top;">:</td><td><div></div></td></tr><tr><td style="font-weight:bold;vertical-align:top;">expires</td><td style="vertical-align:top;">:</td><td><div></div></td></tr><tr><td style="font-weight:bold;vertical-align:top;">httponly</td><td style="vertical-align:top;">:</td><td><div></div></td></tr><tr><td style="font-weight:bold;vertical-align:top;">max-age</td><td style="vertical-align:top;">:</td><td><div></div></td></tr><tr><td style="font-weight:bold;vertical-align:top;">path</td><td style="vertical-align:top;">:</td><td><div></div></td></tr><tr><td style="font-weight:bold;vertical-align:top;">secure</td><td style="vertical-align:top;">:</td><td><div></div></td></tr><tr><td style="font-weight:bold;vertical-align:top;">version</td><td style="vertical-align:top;">:</td><td><div></div></td></tr></table></div></td></tr><tr><td style="font-weight:bold;vertical-align:top;">ajs_group_id</td><td style="vertical-align:top;">:</td><td><div>null<table><tr><td style="font-weight:bold;vertical-align:top;">comment</td><td style="vertical-align:top;">:</td><td><div></div></td></tr><tr><td style="font-weight:bold;vertical-align:top;">domain</td><td style="vertical-align:top;">:</td><td><div></div></td></tr><tr><td style="font-weight:bold;vertical-align:top;">expires</td><td style="vertical-align:top;">:</td><td><div></div></td></tr><tr><td style="font-weight:bold;vertical-align:top;">httponly</td><td style="vertical-align:top;">:</td><td><div></div></td></tr><tr><td style="font-weight:bold;vertical-align:top;">max-age</td><td style="vertical-align:top;">:</td><td><div></div></td></tr><tr><td style="font-weight:bold;vertical-align:top;">path</td><td style="vertical-align:top;">:</td><td><div></div></td></tr><tr><td style="font-weight:bold;vertical-align:top;">secure</td><td style="vertical-align:top;">:</td><td><div></div></td></tr><tr><td style="font-weight:bold;vertical-align:top;">version</td><td style="vertical-align:top;">:</td><td><div></div></td></tr></table></div></td></tr><tr><td style="font-weight:bold;vertical-align:top;">ajs_user_id</td><td style="vertical-align:top;">:</td><td><div>null<table><tr><td style="font-weight:bold;vertical-align:top;">comment</td><td style="vertical-align:top;">:</td><td><div></div></td></tr><tr><td style="font-weight:bold;vertical-align:top;">domain</td><td style="vertical-align:top;">:</td><td><div></div></td></tr><tr><td style="font-weight:bold;vertical-align:top;">expires</td><td style="vertical-align:top;">:</td><td><div></div></td></tr><tr><td style="font-weight:bold;vertical-align:top;">httponly</td><td style="vertical-align:top;">:</td><td><div></div></td></tr><tr><td style="font-weight:bold;vertical-align:top;">max-age</td><td style="vertical-align:top;">:</td><td><div></div></td></tr><tr><td style="font-weight:bold;vertical-align:top;">path</td><td style="vertical-align:top;">:</td><td><div></div></td></tr><tr><td style="font-weight:bold;vertical-align:top;">secure</td><td style="vertical-align:top;">:</td><td><div></div></td></tr><tr><td style="font-weight:bold;vertical-align:top;">version</td><td style="vertical-align:top;">:</td><td><div></div></td></tr></table></div></td></tr><tr><td style="font-weight:bold;vertical-align:top;">mp_c5357a0b115c737650036b7b22ee864f_mixpanel</td><td style="vertical-align:top;">:</td><td><div>%7B%22distinct_id%22%3A%20%221531d8f5c972af-0c0a2a82c-35677f0a-140000-1531d8f5c98239%22%2C%22%24initial_referrer%22%3A%20%22%24direct%22%2C%22%24initial_referring_domain%22%3A%20%22%24direct%22%7D<table><tr><td style="font-weight:bold;vertical-align:top;">comment</td><td style="vertical-align:top;">:</td><td><div></div></td></tr><tr><td style="font-weight:bold;vertical-align:top;">domain</td><td style="vertical-align:top;">:</td><td><div></div></td></tr><tr><td style="font-weight:bold;vertical-align:top;">expires</td><td style="vertical-align:top;">:</td><td><div></div></td></tr><tr><td style="font-weight:bold;vertical-align:top;">httponly</td><td style="vertical-align:top;">:</td><td><div></div></td></tr><tr><td style="font-weight:bold;vertical-align:top;">max-age</td><td style="vertical-align:top;">:</td><td><div></div></td></tr><tr><td style="font-weight:bold;vertical-align:top;">path</td><td style="vertical-align:top;">:</td><td><div></div></td></tr><tr><td style="font-weight:bold;vertical-align:top;">secure</td><td style="vertical-align:top;">:</td><td><div></div></td></tr><tr><td style="font-weight:bold;vertical-align:top;">version</td><td style="vertical-align:top;">:</td><td><div></div></td></tr></table></div></td></tr><tr><td style="font-weight:bold;vertical-align:top;">session_id_admin</td><td style="vertical-align:top;">:</td><td><div>127.0.0.1-e7346b06-1bca-48fb-bd86-64d3b87ecb37<table><tr><td style="font-weight:bold;vertical-align:top;">comment</td><td style="vertical-align:top;">:</td><td><div></div></td></tr><tr><td style="font-weight:bold;vertical-align:top;">domain</td><td style="vertical-align:top;">:</td><td><div></div></td></tr><tr><td style="font-weight:bold;vertical-align:top;">expires</td><td style="vertical-align:top;">:</td><td><div></div></td></tr><tr><td style="font-weight:bold;vertical-align:top;">httponly</td><td style="vertical-align:top;">:</td><td><div></div></td></tr><tr><td style="font-weight:bold;vertical-align:top;">max-age</td><td style="vertical-align:top;">:</td><td><div></div></td></tr><tr><td style="font-weight:bold;vertical-align:top;">path</td><td style="vertical-align:top;">:</td><td><div></div></td></tr><tr><td style="font-weight:bold;vertical-align:top;">secure</td><td style="vertical-align:top;">:</td><td><div></div></td></tr><tr><td style="font-weight:bold;vertical-align:top;">version</td><td style="vertical-align:top;">:</td><td><div></div></td></tr></table></div></td></tr><tr><td style="font-weight:bold;vertical-align:top;">session_id_editex</td><td style="vertical-align:top;">:</td><td><div>127.0.0.1-780aeb25-9f9c-4573-8f39-3add00357357<table><tr><td style="font-weight:bold;vertical-align:top;">comment</td><td style="vertical-align:top;">:</td><td><div></div></td></tr><tr><td style="font-weight:bold;vertical-align:top;">domain</td><td style="vertical-align:top;">:</td><td><div></div></td></tr><tr><td style="font-weight:bold;vertical-align:top;">expires</td><td style="vertical-align:top;">:</td><td><div></div></td></tr><tr><td style="font-weight:bold;vertical-align:top;">httponly</td><td style="vertical-align:top;">:</td><td><div></div></td></tr><tr><td style="font-weight:bold;vertical-align:top;">max-age</td><td style="vertical-align:top;">:</td><td><div></div></td></tr><tr><td style="font-weight:bold;vertical-align:top;">path</td><td style="vertical-align:top;">:</td><td><div></div></td></tr><tr><td style="font-weight:bold;vertical-align:top;">secure</td><td style="vertical-align:top;">:</td><td><div></div></td></tr><tr><td style="font-weight:bold;vertical-align:top;">version</td><td style="vertical-align:top;">:</td><td><div></div></td></tr></table></div></td></tr><tr><td style="font-weight:bold;vertical-align:top;">session_id_prodigious</td><td style="vertical-align:top;">:</td><td><div>127.0.0.1-b34e3ded-6950-4c91-83b3-cd66a19963f6<table><tr><td style="font-weight:bold;vertical-align:top;">comment</td><td style="vertical-align:top;">:</td><td><div></div></td></tr><tr><td style="font-weight:bold;vertical-align:top;">domain</td><td style="vertical-align:top;">:</td><td><div></div></td></tr><tr><td style="font-weight:bold;vertical-align:top;">expires</td><td style="vertical-align:top;">:</td><td><div></div></td></tr><tr><td style="font-weight:bold;vertical-align:top;">httponly</td><td style="vertical-align:top;">:</td><td><div></div></td></tr><tr><td style="font-weight:bold;vertical-align:top;">max-age</td><td style="vertical-align:top;">:</td><td><div></div></td></tr><tr><td style="font-weight:bold;vertical-align:top;">path</td><td style="vertical-align:top;">:</td><td><div></div></td></tr><tr><td style="font-weight:bold;vertical-align:top;">secure</td><td style="vertical-align:top;">:</td><td><div></div></td></tr><tr><td style="font-weight:bold;vertical-align:top;">version</td><td style="vertical-align:top;">:</td><td><div></div></td></tr></table></div></td></tr><tr><td style="font-weight:bold;vertical-align:top;">session_id_styler</td><td style="vertical-align:top;">:</td><td><div>127.0.0.1-ee8c35d3-6dfc-45b7-b2f0-29a184475310<table><tr><td style="font-weight:bold;vertical-align:top;">comment</td><td style="vertical-align:top;">:</td><td><div></div></td></tr><tr><td style="font-weight:bold;vertical-align:top;">domain</td><td style="vertical-align:top;">:</td><td><div></div></td></tr><tr><td style="font-weight:bold;vertical-align:top;">expires</td><td style="vertical-align:top;">:</td><td><div></div></td></tr><tr><td style="font-weight:bold;vertical-align:top;">httponly</td><td style="vertical-align:top;">:</td><td><div></div></td></tr><tr><td style="font-weight:bold;vertical-align:top;">max-age</td><td style="vertical-align:top;">:</td><td><div></div></td></tr><tr><td style="font-weight:bold;vertical-align:top;">path</td><td style="vertical-align:top;">:</td><td><div></div></td></tr><tr><td style="font-weight:bold;vertical-align:top;">secure</td><td style="vertical-align:top;">:</td><td><div></div></td></tr><tr><td style="font-weight:bold;vertical-align:top;">version</td><td style="vertical-align:top;">:</td><td><div></div></td></tr></table></div></td></tr><tr><td style="font-weight:bold;vertical-align:top;">session_id_welcome</td><td style="vertical-align:top;">:</td><td><div>127.0.0.1-d3cca59c-140e-4dd5-a49a-57dba19a23c8<table><tr><td style="font-weight:bold;vertical-align:top;">comment</td><td style="vertical-align:top;">:</td><td><div></div></td></tr><tr><td style="font-weight:bold;vertical-align:top;">domain</td><td style="vertical-align:top;">:</td><td><div></div></td></tr><tr><td style="font-weight:bold;vertical-align:top;">expires</td><td style="vertical-align:top;">:</td><td><div></div></td></tr><tr><td style="font-weight:bold;vertical-align:top;">httponly</td><td style="vertical-align:top;">:</td><td><div></div></td></tr><tr><td style="font-weight:bold;vertical-align:top;">max-age</td><td style="vertical-align:top;">:</td><td><div></div></td></tr><tr><td style="font-weight:bold;vertical-align:top;">path</td><td style="vertical-align:top;">:</td><td><div></div></td></tr><tr><td style="font-weight:bold;vertical-align:top;">secure</td><td style="vertical-align:top;">:</td><td><div></div></td></tr><tr><td style="font-weight:bold;vertical-align:top;">version</td><td style="vertical-align:top;">:</td><td><div></div></td></tr></table></div></td></tr><tr><td style="font-weight:bold;vertical-align:top;">session_id_wider</td><td style="vertical-align:top;">:</td><td><div>127.0.0.1-8c9a3633-0820-4cab-a449-a3d0f8403fb4<table><tr><td style="font-weight:bold;vertical-align:top;">comment</td><td style="vertical-align:top;">:</td><td><div></div></td></tr><tr><td style="font-weight:bold;vertical-align:top;">domain</td><td style="vertical-align:top;">:</td><td><div></div></td></tr><tr><td style="font-weight:bold;vertical-align:top;">expires</td><td style="vertical-align:top;">:</td><td><div></div></td></tr><tr><td style="font-weight:bold;vertical-align:top;">httponly</td><td style="vertical-align:top;">:</td><td><div></div></td></tr><tr><td style="font-weight:bold;vertical-align:top;">max-age</td><td style="vertical-align:top;">:</td><td><div></div></td></tr><tr><td style="font-weight:bold;vertical-align:top;">path</td><td style="vertical-align:top;">:</td><td><div></div></td></tr><tr><td style="font-weight:bold;vertical-align:top;">secure</td><td style="vertical-align:top;">:</td><td><div></div></td></tr><tr><td style="font-weight:bold;vertical-align:top;">version</td><td style="vertical-align:top;">:</td><td><div></div></td></tr></table></div></td></tr></table></div></td></tr><tr><td style="font-weight:bold;vertical-align:top;">env</td><td style="vertical-align:top;">:</td><td><div><table><tr><td style="font-weight:bold;vertical-align:top;">HTTP_ACCEPT</td><td style="vertical-align:top;">:</td><td><div>text/html,application/xhtml+xml,application/xml;q=0.9,image/webp,*/*;q=0.8</div></td></tr><tr><td style="font-weight:bold;vertical-align:top;">HTTP_ACCEPT_ENCODING</td><td style="vertical-align:top;">:</td><td><div>gzip, deflate, sdch</div></td></tr><tr><td style="font-weight:bold;vertical-align:top;">HTTP_ACCEPT_LANGUAGE</td><td style="vertical-align:top;">:</td><td><div>en-US,en;q=0.8</div></td></tr><tr><td style="font-weight:bold;vertical-align:top;">HTTP_CACHE_CONTROL</td><td style="vertical-align:top;">:</td><td><div>max-age=0</div></td></tr><tr><td style="font-weight:bold;vertical-align:top;">HTTP_CONNECTION</td><td style="vertical-align:top;">:</td><td><div>keep-alive</div></td></tr><tr><td style="font-weight:bold;vertical-align:top;">HTTP_COOKIE</td><td style="vertical-align:top;">:</td><td><div>ajs_anonymous_id=%22c5ce07da-16c3-4f3a-b4fd-0a458506c7ad%22; ajs_user_id=null; ajs_group_id=null; mp_c5357a0b115c737650036b7b22ee864f_mixpanel=%7B%22distinct_id%22%3A%20%221531d8f5c972af-0c0a2a82c-35677f0a-140000-1531d8f5c98239%22%2C%22%24initial_referrer%22%3A%20%22%24direct%22%2C%22%24initial_referring_domain%22%3A%20%22%24direct%22%7D; session_id_wider=127.0.0.1-8c9a3633-0820-4cab-a449-a3d0f8403fb4; session_id_styler=127.0.0.1-ee8c35d3-6dfc-45b7-b2f0-29a184475310; session_id_welcome=127.0.0.1-d3cca59c-140e-4dd5-a49a-57dba19a23c8; session_id_prodigious=127.0.0.1-b34e3ded-6950-4c91-83b3-cd66a19963f6; session_id_admin=127.0.0.1-e7346b06-1bca-48fb-bd86-64d3b87ecb37; session_id_editex=127.0.0.1-780aeb25-9f9c-4573-8f39-3add00357357</div></td></tr><tr><td style="font-weight:bold;vertical-align:top;">HTTP_HOST</td><td style="vertical-align:top;">:</td><td><div>127.0.0.1:8000</div></td></tr><tr><td style="font-weight:bold;vertical-align:top;">HTTP_UPGRADE_INSECURE_REQUESTS</td><td style="vertical-align:top;">:</td><td><div>1</div></td></tr><tr><td style="font-weight:bold;vertical-align:top;">HTTP_USER_AGENT</td><td style="vertical-align:top;">:</td><td><div>Mozilla/5.0 (Macintosh; Intel Mac OS X 10_10_5) AppleWebKit/537.36 (KHTML, like Gecko) Chrome/48.0.2564.116 Safari/537.36</div></td></tr><tr><td style="font-weight:bold;vertical-align:top;">PATH_INFO</td><td style="vertical-align:top;">:</td><td><div>/editex/compose/list_nodes</div></td></tr><tr><td style="font-weight:bold;vertical-align:top;">QUERY_STRING</td><td style="vertical-align:top;">:</td><td><div></div></td></tr><tr><td style="font-weight:bold;vertical-align:top;">REMOTE_ADDR</td><td style="vertical-align:top;">:</td><td><div>127.0.0.1</div></td></tr><tr><td style="font-weight:bold;vertical-align:top;">REMOTE_PORT</td><td style="vertical-align:top;">:</td><td><div>50689</div></td></tr><tr><td style="font-weight:bold;vertical-align:top;">REQUEST_METHOD</td><td style="vertical-align:top;">:</td><td><div>GET</div></td></tr><tr><td style="font-weight:bold;vertical-align:top;">SCRIPT_NAME</td><td style="vertical-align:top;">:</td><td><div></div></td></tr><tr><td style="font-weight:bold;vertical-align:top;">SERVER_NAME</td><td style="vertical-align:top;">:</td><td><div>minion.local</div></td></tr><tr><td style="font-weight:bold;vertical-align:top;">SERVER_PORT</td><td style="vertical-align:top;">:</td><td><div>8000</div></td></tr><tr><td style="font-weight:bold;vertical-align:top;">SERVER_PROTOCOL</td><td style="vertical-align:top;">:</td><td><div>HTTP/1.1</div></td></tr><tr><td style="font-weight:bold;vertical-align:top;">SERVER_SOFTWARE</td><td style="vertical-align:top;">:</td><td><div>Rocket 1.2.6</div></td></tr><tr><td style="font-weight:bold;vertical-align:top;">app_folders</td><td style="vertical-align:top;">:</td><td><div>set([&#x27;/Users/admin/web2py/applications/editex/&#x27;, &#x27;/Users/admin/web2py/applications/admin/&#x27;, &#x27;/Users/admin/web2py/applications/prodigious/&#x27;, &#x27;/Users/admin/web2py/applications/welcome/&#x27;])</div></td></tr><tr><td style="font-weight:bold;vertical-align:top;">applications_parent</td><td style="vertical-align:top;">:</td><td><div>/Users/admin/web2py</div></td></tr><tr><td style="font-weight:bold;vertical-align:top;">cmd_args</td><td style="vertical-align:top;">:</td><td><div><table></table></div></td></tr><tr><td style="font-weight:bold;vertical-align:top;">cmd_options</td><td style="vertical-align:top;">:</td><td><div>&lt;Values at 0x10cf74248: {&#x27;verbose&#x27;: False, &#x27;ip&#x27;: &#x27;127.0.0.1&#x27;, &#x27;debuglevel&#x27;: 30, &#x27;with_scheduler&#x27;: False, &#x27;ips&#x27;: [&#x27;192.168.1.12&#x27;, &#x27;fe80::21f:5bff:fe38:218%en0&#x27;, &#x27;192.168.2.200&#x27;, &#x27;fe80::21f:f3ff:fe6e:386%fw0&#x27;], &#x27;shutdown_timeout&#x27;: 5, &#x27;taskbar&#x27;: False, &#x27;with_coverage&#x27;: False, &#x27;scheduler_groups&#x27;: None, &#x27;port&#x27;: 8000, &#x27;maxthreads&#x27;: None, &#x27;softcron&#x27;: False, &#x27;server_name&#x27;: &#x27;minion.local&#x27;, &#x27;bpython&#x27;: False, &#x27;nogui&#x27;: False, &#x27;pid_filename&#x27;: &#x27;httpserver.pid&#x27;, &#x27;print_errors&#x27;: False, &#x27;extcron&#x27;: False, &#x27;runcron&#x27;: False, &#x27;run_system_tests&#x27;: False, &#x27;test&#x27;: None, &#x27;folder&#x27;: &#x27;/Users/admin/web2py&#x27;, &#x27;config&#x27;: &#x27;&#x27;, &#x27;minthreads&#x27;: None, &#x27;shell&#x27;: None, &#x27;run&#x27;: &#x27;&#x27;, &#x27;log_filename&#x27;: &#x27;httpserver.log&#x27;, &#x27;profiler_dir&#x27;: None, &#x27;args&#x27;: [&#x27;&#x27;], &#x27;socket_timeout&#x27;: 5, &#x27;ssl_ca_certificate&#x27;: None, &#x27;scheduler&#x27;: None, &#x27;interfaces&#x27;: None, &#x27;ssl_private_key&#x27;: &#x27;&#x27;, &#x27;gae&#x27;: None, &#x27;password&#x27;: &#x27;&lt;ask&gt;&#x27;, &#x27;request_queue_size&#x27;: 5, &#x27;ssl_certificate&#x27;: &#x27;&#x27;, &#x27;cronjob&#x27;: False, &#x27;numthreads&#x27;: None, &#x27;quiet&#x27;: False, &#x27;import_models&#x27;: False, &#x27;timeout&#x27;: 10, &#x27;plain&#x27;: False, &#x27;nobanner&#x27;: False}&gt;</div></td></tr><tr><td style="font-weight:bold;vertical-align:top;">db_sessions</td><td style="vertical-align:top;">:</td><td><div>set([])</div></td></tr><tr><td style="font-weight:bold;vertical-align:top;">debugging</td><td style="vertical-align:top;">:</td><td><div>True</div></td></tr><tr><td style="font-weight:bold;vertical-align:top;">gluon_parent</td><td style="vertical-align:top;">:</td><td><div>/Users/admin/web2py</div></td></tr><tr><td style="font-weight:bold;vertical-align:top;">http_accept</td><td style="vertical-align:top;">:</td><td><div>text/html,application/xhtml+xml,application/xml;q=0.9,image/webp,*/*;q=0.8</div></td></tr><tr><td style="font-weight:bold;vertical-align:top;">http_accept_encoding</td><td style="vertical-align:top;">:</td><td><div>gzip, deflate, sdch</div></td></tr><tr><td style="font-weight:bold;vertical-align:top;">http_accept_language</td><td style="vertical-align:top;">:</td><td><div>en-US,en;q=0.8</div></td></tr><tr><td style="font-weight:bold;vertical-align:top;">http_cache_control</td><td style="vertical-align:top;">:</td><td><div>max-age=0</div></td></tr><tr><td style="font-weight:bold;vertical-align:top;">http_connection</td><td style="vertical-align:top;">:</td><td><div>keep-alive</div></td></tr><tr><td style="font-weight:bold;vertical-align:top;">http_cookie</td><td style="vertical-align:top;">:</td><td><div>ajs_anonymous_id=%22c5ce07da-16c3-4f3a-b4fd-0a458506c7ad%22; ajs_user_id=null; ajs_group_id=null; mp_c5357a0b115c737650036b7b22ee864f_mixpanel=%7B%22distinct_id%22%3A%20%221531d8f5c972af-0c0a2a82c-35677f0a-140000-1531d8f5c98239%22%2C%22%24initial_referrer%22%3A%20%22%24direct%22%2C%22%24initial_referring_domain%22%3A%20%22%24direct%22%7D; session_id_wider=127.0.0.1-8c9a3633-0820-4cab-a449-a3d0f8403fb4; session_id_styler=127.0.0.1-ee8c35d3-6dfc-45b7-b2f0-29a184475310; session_id_welcome=127.0.0.1-d3cca59c-140e-4dd5-a49a-57dba19a23c8; session_id_prodigious=127.0.0.1-b34e3ded-6950-4c91-83b3-cd66a19963f6; session_id_admin=127.0.0.1-e7346b06-1bca-48fb-bd86-64d3b87ecb37; session_id_editex=127.0.0.1-780aeb25-9f9c-4573-8f39-3add00357357</div></td></tr><tr><td style="font-weight:bold;vertical-align:top;">http_host</td><td style="vertical-align:top;">:</td><td><div>127.0.0.1:8000</div></td></tr><tr><td style="font-weight:bold;vertical-align:top;">http_upgrade_insecure_requests</td><td style="vertical-align:top;">:</td><td><div>1</div></td></tr><tr><td style="font-weight:bold;vertical-align:top;">http_user_agent</td><td style="vertical-align:top;">:</td><td><div>Mozilla/5.0 (Macintosh; Intel Mac OS X 10_10_5) AppleWebKit/537.36 (KHTML, like Gecko) Chrome/48.0.2564.116 Safari/537.36</div></td></tr><tr><td style="font-weight:bold;vertical-align:top;">http_web2py_component_element</td><td style="vertical-align:top;">:</td><td><div>c259696075288</div></td></tr><tr><td style="font-weight:bold;vertical-align:top;">http_web2py_component_location</td><td style="vertical-align:top;">:</td><td><div>/editex/compose/list_nodes</div></td></tr><tr><td style="font-weight:bold;vertical-align:top;">is_jython</td><td style="vertical-align:top;">:</td><td><div>False</div></td></tr><tr><td style="font-weight:bold;vertical-align:top;">is_pypy</td><td style="vertical-align:top;">:</td><td><div>False</div></td></tr><tr><td style="font-weight:bold;vertical-align:top;">is_source</td><td style="vertical-align:top;">:</td><td><div>True</div></td></tr><tr><td style="font-weight:bold;vertical-align:top;">local_hosts</td><td style="vertical-align:top;">:</td><td><div><table><tr><td><div>minion.local</div></td></tr><tr><td><div>192.168.1.12</div></td></tr><tr><td><div>::ffff:127.0.0.1</div></td></tr><tr><td><div>::1</div></td></tr><tr><td><div>fe80::21f:5bff:fe38:218%en0</div></td></tr><tr><td><div>fe80::21f:f3ff:fe6e:386%fw0</div></td></tr><tr><td><div>192.168.2.200</div></td></tr><tr><td><div>127.0.0.1</div></td></tr></table></div></td></tr><tr><td style="font-weight:bold;vertical-align:top;">path_info</td><td style="vertical-align:top;">:</td><td><div>/editex/compose/insert</div></td></tr><tr><td style="font-weight:bold;vertical-align:top;">query_string</td><td style="vertical-align:top;">:</td><td><div></div></td></tr><tr><td style="font-weight:bold;vertical-align:top;">remote_addr</td><td style="vertical-align:top;">:</td><td><div>127.0.0.1</div></td></tr><tr><td style="font-weight:bold;vertical-align:top;">remote_port</td><td style="vertical-align:top;">:</td><td><div>50689</div></td></tr><tr><td style="font-weight:bold;vertical-align:top;">request_method</td><td style="vertical-align:top;">:</td><td><div>GET</div></td></tr><tr><td style="font-weight:bold;vertical-align:top;">request_uri</td><td style="vertical-align:top;">:</td><td><div>/editex/compose/list_nodes</div></td></tr><tr><td style="font-weight:bold;vertical-align:top;">script_name</td><td style="vertical-align:top;">:</td><td><div></div></td></tr><tr><td style="font-weight:bold;vertical-align:top;">server_name</td><td style="vertical-align:top;">:</td><td><div>minion.local</div></td></tr><tr><td style="font-weight:bold;vertical-align:top;">server_port</td><td style="vertical-align:top;">:</td><td><div>8000</div></td></tr><tr><td style="font-weight:bold;vertical-align:top;">server_protocol</td><td style="vertical-align:top;">:</td><td><div>HTTP/1.1</div></td></tr><tr><td style="font-weight:bold;vertical-align:top;">server_software</td><td style="vertical-align:top;">:</td><td><div>Rocket 1.2.6</div></td></tr><tr><td style="font-weight:bold;vertical-align:top;">web2py_path</td><td style="vertical-align:top;">:</td><td><div>/Users/admin/web2py</div></td></tr><tr><td style="font-weight:bold;vertical-align:top;">web2py_version</td><td style="vertical-align:top;">:</td><td><div>2.12.3-stable+timestamp.2015.08.18.19.14.07</div></td></tr><tr><td style="font-weight:bold;vertical-align:top;">wsgi.errors</td><td style="vertical-align:top;">:</td><td><div>&lt;open file &#x27;&lt;stderr&gt;&#x27;, mode &#x27;w&#x27; at 0x10bed21e0&gt;</div></td></tr><tr><td style="font-weight:bold;vertical-align:top;">wsgi.file_wrapper</td><td style="vertical-align:top;">:</td><td><div>&lt;class wsgiref.util.FileWrapper at 0x10cefc600&gt;</div></td></tr><tr><td style="font-weight:bold;vertical-align:top;">wsgi.input</td><td style="vertical-align:top;">:</td><td><div>&lt;socket._fileobject object at 0x1180c4450&gt;</div></td></tr><tr><td style="font-weight:bold;vertical-align:top;">wsgi.multiprocess</td><td style="vertical-align:top;">:</td><td><div>False</div></td></tr><tr><td style="font-weight:bold;vertical-align:top;">wsgi.multithread</td><td style="vertical-align:top;">:</td><td><div>True</div></td></tr><tr><td style="font-weight:bold;vertical-align:top;">wsgi.run_once</td><td style="vertical-align:top;">:</td><td><div>False</div></td></tr><tr><td style="font-weight:bold;vertical-align:top;">wsgi.url_scheme</td><td style="vertical-align:top;">:</td><td><div>http</div></td></tr><tr><td style="font-weight:bold;vertical-align:top;">wsgi.version</td><td style="vertical-align:top;">:</td><td><div><table><tr><td><div>1</div></td></tr><tr><td><div>0</div></td></tr></table></div></td></tr><tr><td style="font-weight:bold;vertical-align:top;">wsgi_errors</td><td style="vertical-align:top;">:</td><td><div>&lt;open file &#x27;&lt;stderr&gt;&#x27;, mode &#x27;w&#x27; at 0x10bed21e0&gt;</div></td></tr><tr><td style="font-weight:bold;vertical-align:top;">wsgi_file_wrapper</td><td style="vertical-align:top;">:</td><td><div>&lt;class wsgiref.util.FileWrapper at 0x10cefc600&gt;</div></td></tr><tr><td style="font-weight:bold;vertical-align:top;">wsgi_input</td><td style="vertical-align:top;">:</td><td><div>&lt;socket._fileobject object at 0x1180c4450&gt;</div></td></tr><tr><td style="font-weight:bold;vertical-align:top;">wsgi_multiprocess</td><td style="vertical-align:top;">:</td><td><div>False</div></td></tr><tr><td style="font-weight:bold;vertical-align:top;">wsgi_multithread</td><td style="vertical-align:top;">:</td><td><div>True</div></td></tr><tr><td style="font-weight:bold;vertical-align:top;">wsgi_run_once</td><td style="vertical-align:top;">:</td><td><div>False</div></td></tr><tr><td style="font-weight:bold;vertical-align:top;">wsgi_url_scheme</td><td style="vertical-align:top;">:</td><td><div>http</div></td></tr><tr><td style="font-weight:bold;vertical-align:top;">wsgi_version</td><td style="vertical-align:top;">:</td><td><div><table><tr><td><div>1</div></td></tr><tr><td><div>0</div></td></tr></table></div></td></tr></table></div></td></tr><tr><td style="font-weight:bold;vertical-align:top;">extension</td><td style="vertical-align:top;">:</td><td><div>html</div></td></tr><tr><td style="font-weight:bold;vertical-align:top;">folder</td><td style="vertical-align:top;">:</td><td><div>/Users/admin/web2py/applications/editex/</div></td></tr><tr><td style="font-weight:bold;vertical-align:top;">function</td><td style="vertical-align:top;">:</td><td><div>insert</div></td></tr><tr><td style="font-weight:bold;vertical-align:top;">get_vars</td><td style="vertical-align:top;">:</td><td><div><table></table></div></td></tr><tr><td style="font-weight:bold;vertical-align:top;">global_settings</td><td style="vertical-align:top;">:</td><td><div><table><tr><td style="font-weight:bold;vertical-align:top;">app_folders</td><td style="vertical-align:top;">:</td><td><div>set([&#x27;/Users/admin/web2py/applications/editex/&#x27;, &#x27;/Users/admin/web2py/applications/admin/&#x27;, &#x27;/Users/admin/web2py/applications/prodigious/&#x27;, &#x27;/Users/admin/web2py/applications/welcome/&#x27;])</div></td></tr><tr><td style="font-weight:bold;vertical-align:top;">applications_parent</td><td style="vertical-align:top;">:</td><td><div>/Users/admin/web2py</div></td></tr><tr><td style="font-weight:bold;vertical-align:top;">cmd_args</td><td style="vertical-align:top;">:</td><td><div><table></table></div></td></tr><tr><td style="font-weight:bold;vertical-align:top;">cmd_options</td><td style="vertical-align:top;">:</td><td><div>&lt;Values at 0x10cf74248: {&#x27;verbose&#x27;: False, &#x27;ip&#x27;: &#x27;127.0.0.1&#x27;, &#x27;debuglevel&#x27;: 30, &#x27;with_scheduler&#x27;: False, &#x27;ips&#x27;: [&#x27;192.168.1.12&#x27;, &#x27;fe80::21f:5bff:fe38:218%en0&#x27;, &#x27;192.168.2.200&#x27;, &#x27;fe80::21f:f3ff:fe6e:386%fw0&#x27;], &#x27;shutdown_timeout&#x27;: 5, &#x27;taskbar&#x27;: False, &#x27;with_coverage&#x27;: False, &#x27;scheduler_groups&#x27;: None, &#x27;port&#x27;: 8000, &#x27;maxthreads&#x27;: None, &#x27;softcron&#x27;: False, &#x27;server_name&#x27;: &#x27;minion.local&#x27;, &#x27;bpython&#x27;: False, &#x27;nogui&#x27;: False, &#x27;pid_filename&#x27;: &#x27;httpserver.pid&#x27;, &#x27;print_errors&#x27;: False, &#x27;extcron&#x27;: False, &#x27;runcron&#x27;: False, &#x27;run_system_tests&#x27;: False, &#x27;test&#x27;: None, &#x27;folder&#x27;: &#x27;/Users/admin/web2py&#x27;, &#x27;config&#x27;: &#x27;&#x27;, &#x27;minthreads&#x27;: None, &#x27;shell&#x27;: None, &#x27;run&#x27;: &#x27;&#x27;, &#x27;log_filename&#x27;: &#x27;httpserver.log&#x27;, &#x27;profiler_dir&#x27;: None, &#x27;args&#x27;: [&#x27;&#x27;], &#x27;socket_timeout&#x27;: 5, &#x27;ssl_ca_certificate&#x27;: None, &#x27;scheduler&#x27;: None, &#x27;interfaces&#x27;: None, &#x27;ssl_private_key&#x27;: &#x27;&#x27;, &#x27;gae&#x27;: None, &#x27;password&#x27;: &#x27;&lt;ask&gt;&#x27;, &#x27;request_queue_size&#x27;: 5, &#x27;ssl_certificate&#x27;: &#x27;&#x27;, &#x27;cronjob&#x27;: False, &#x27;numthreads&#x27;: None, &#x27;quiet&#x27;: False, &#x27;import_models&#x27;: False, &#x27;timeout&#x27;: 10, &#x27;plain&#x27;: False, &#x27;nobanner&#x27;: False}&gt;</div></td></tr><tr><td style="font-weight:bold;vertical-align:top;">db_sessions</td><td style="vertical-align:top;">:</td><td><div>set([])</div></td></tr><tr><td style="font-weight:bold;vertical-align:top;">debugging</td><td style="vertical-align:top;">:</td><td><div>True</div></td></tr><tr><td style="font-weight:bold;vertical-align:top;">gluon_parent</td><td style="vertical-align:top;">:</td><td><div>/Users/admin/web2py</div></td></tr><tr><td style="font-weight:bold;vertical-align:top;">is_jython</td><td style="vertical-align:top;">:</td><td><div>False</div></td></tr><tr><td style="font-weight:bold;vertical-align:top;">is_pypy</td><td style="vertical-align:top;">:</td><td><div>False</div></td></tr><tr><td style="font-weight:bold;vertical-align:top;">is_source</td><td style="vertical-align:top;">:</td><td><div>True</div></td></tr><tr><td style="font-weight:bold;vertical-align:top;">local_hosts</td><td style="vertical-align:top;">:</td><td><div><table><tr><td><div>minion.local</div></td></tr><tr><td><div>192.168.1.12</div></td></tr><tr><td><div>::ffff:127.0.0.1</div></td></tr><tr><td><div>::1</div></td></tr><tr><td><div>fe80::21f:5bff:fe38:218%en0</div></td></tr><tr><td><div>fe80::21f:f3ff:fe6e:386%fw0</div></td></tr><tr><td><div>192.168.2.200</div></td></tr><tr><td><div>127.0.0.1</div></td></tr></table></div></td></tr><tr><td style="font-weight:bold;vertical-align:top;">web2py_version</td><td style="vertical-align:top;">:</td><td><div>2.12.3-stable+timestamp.2015.08.18.19.14.07</div></td></tr></table></div></td></tr><tr><td style="font-weight:bold;vertical-align:top;">is_https</td><td style="vertical-align:top;">:</td><td><div>False</div></td></tr><tr><td style="font-weight:bold;vertical-align:top;">is_local</td><td style="vertical-align:top;">:</td><td><div>True</div></td></tr><tr><td style="font-weight:bold;vertical-align:top;">is_restful</td><td style="vertical-align:top;">:</td><td><div>False</div></td></tr><tr><td style="font-weight:bold;vertical-align:top;">is_sheduler</td><td style="vertical-align:top;">:</td><td><div>None</div></td></tr><tr><td style="font-weight:bold;vertical-align:top;">is_shell</td><td style="vertical-align:top;">:</td><td><div>None</div></td></tr><tr><td style="font-weight:bold;vertical-align:top;">now</td><td style="vertical-align:top;">:</td><td><div>datetime.datetime(2016, 3, 9, 19, 28, 16, 280312)</div></td></tr><tr><td style="font-weight:bold;vertical-align:top;">post_vars</td><td style="vertical-align:top;">:</td><td><div><table></table></div></td></tr><tr><td style="font-weight:bold;vertical-align:top;">raw_args</td><td style="vertical-align:top;">:</td><td><div></div></td></tr><tr><td style="font-weight:bold;vertical-align:top;">raw_extension</td><td style="vertical-align:top;">:</td><td><div>None</div></td></tr><tr><td style="font-weight:bold;vertical-align:top;">restful</td><td style="vertical-align:top;">:</td><td><div>&lt;bound method ?.restful of &lt;Storage {&#x27;_vars&#x27;: None, &#x27;function&#x27;: &#x27;insert&#x27;, &#x27;cookies&#x27;: &lt;SimpleCookie: ajs_anonymous_id=&#x27;%22c5ce07da-16c3-4f3a-b4fd-0a458506c7ad%22&#x27; ajs_group_id=&#x27;null&#x27; ajs_user_id=&#x27;null&#x27; mp_c5357a0b115c737650036b7b22ee864f_mixpanel=&#x27;%7B%22distinct_id%22%3A%20%221531d8f5c972af-0c0a2a82c-35677f0a-140000-1531d8f5c98239%22%2C%22%24initial_referrer%22%3A%20%22%24direct%22%2C%22%24initial_referring_domain%22%3A%20%22%24direct%22%7D&#x27; session_id_admin=&#x27;127.0.0.1-e7346b06-1bca-48fb-bd86-64d3b87ecb37&#x27; session_id_editex=&#x27;127.0.0.1-780aeb25-9f9c-4573-8f39-3add00357357&#x27; session_id_prodigious=&#x27;127.0.0.1-b34e3ded-6950-4c91-83b3-cd66a19963f6&#x27; session_id_styler=&#x27;127.0.0.1-ee8c35d3-6dfc-45b7-b2f0-29a184475310&#x27; session_id_welcome=&#x27;127.0.0.1-d3cca59c-140e-4dd5-a49a-57dba19a23c8&#x27; session_id_wider=&#x27;127.0.0.1-8c9a3633-0820-4cab-a449-a3d0f8403fb4&#x27;&gt;, &#x27;args&#x27;: [], &#x27;vars&#x27;: &lt;Storage {}&gt;, &#x27;global_settings&#x27;: &lt;Storage {&#x27;debugging&#x27;: True, &#x27;is_pypy&#x27;: False, &#x27;local_hosts&#x27;: [&#x27;minion.local&#x27;, &#x27;192.168.1.12&#x27;, &#x27;::ffff:127.0.0.1&#x27;, &#x27;::1&#x27;, &#x27;fe80::21f:5bff:fe38:218%en0&#x27;, &#x27;fe80::21f:f3ff:fe6e:386%fw0&#x27;, &#x27;192.168.2.200&#x27;, &#x27;127.0.0.1&#x27;], &#x27;is_source&#x27;: True, &#x27;gluon_parent&#x27;: &#x27;/Users/admin/web2py&#x27;, &#x27;is_jython&#x27;: False, &#x27;applications_parent&#x27;: &#x27;/Users/admin/web2py&#x27;, &#x27;cmd_options&#x27;: &lt;Values at 0x10cf74248: {&#x27;verbose&#x27;: False, &#x27;ip&#x27;: &#x27;127.0.0.1&#x27;, &#x27;debuglevel&#x27;: 30, &#x27;with_scheduler&#x27;: False, &#x27;ips&#x27;: [&#x27;192.168.1.12&#x27;, &#x27;fe80::21f:5bff:fe38:218%en0&#x27;, &#x27;192.168.2.200&#x27;, &#x27;fe80::21f:f3ff:fe6e:386%fw0&#x27;], &#x27;shutdown_timeout&#x27;: 5, &#x27;taskbar&#x27;: False, &#x27;with_coverage&#x27;: False, &#x27;scheduler_groups&#x27;: None, &#x27;port&#x27;: 8000, &#x27;maxthreads&#x27;: None, &#x27;softcron&#x27;: False, &#x27;server_name&#x27;: &#x27;minion.local&#x27;, &#x27;bpython&#x27;: False, &#x27;nogui&#x27;: False, &#x27;pid_filename&#x27;: &#x27;httpserver.pid&#x27;, &#x27;print_errors&#x27;: False, &#x27;extcron&#x27;: False, &#x27;runcron&#x27;: False, &#x27;run_system_tests&#x27;: False, &#x27;test&#x27;: None, &#x27;folder&#x27;: &#x27;/Users/admin/web2py&#x27;, &#x27;config&#x27;: &#x27;&#x27;, &#x27;minthreads&#x27;: None, &#x27;shell&#x27;: None, &#x27;run&#x27;: &#x27;&#x27;, &#x27;log_filename&#x27;: &#x27;httpserver.log&#x27;, &#x27;profiler_dir&#x27;: None, &#x27;args&#x27;: [&#x27;&#x27;], &#x27;socket_timeout&#x27;: 5, &#x27;ssl_ca_certificate&#x27;: None, &#x27;scheduler&#x27;: None, &#x27;interfaces&#x27;: None, &#x27;ssl_private_key&#x27;: &#x27;&#x27;, &#x27;gae&#x27;: None, &#x27;password&#x27;: &#x27;&lt;ask&gt;&#x27;, &#x27;request_queue_size&#x27;: 5, &#x27;ssl_certificate&#x27;: &#x27;&#x27;, &#x27;cronjob&#x27;: False, &#x27;numthreads&#x27;: None, &#x27;quiet&#x27;: False, &#x27;import_models&#x27;: False, &#x27;timeout&#x27;: 10, &#x27;plain&#x27;: False, &#x27;nobanner&#x27;: False}&gt;, &#x27;app_folders&#x27;: set([&#x27;/Users/admin/web2py/applications/editex/&#x27;, &#x27;/Users/admin/web2py/applications/admin/&#x27;, &#x27;/Users/admin/web2py/applications/prodigious/&#x27;, &#x27;/Users/admin/web2py/applications/welcome/&#x27;]), &#x27;db_sessions&#x27;: set([]), &#x27;web2py_version&#x27;: &#x27;2.12.3-stable+timestamp.2015.08.18.19.14.07&#x27;, &#x27;cmd_args&#x27;: []}&gt;, &#x27;raw_extension&#x27;: None, &#x27;_body&#x27;: None, &#x27;_uuid&#x27;: None, &#x27;raw_args&#x27;: &#x27;&#x27;, &#x27;controller&#x27;: &#x27;compose&#x27;, &#x27;application&#x27;: &#x27;editex&#x27;, &#x27;utcnow&#x27;: datetime.datetime(2016, 3, 10, 3, 28, 16, 280327), &#x27;now&#x27;: datetime.datetime(2016, 3, 9, 19, 28, 16, 280312), &#x27;is_local&#x27;: True, &#x27;wsgi&#x27;: &lt;gluon.main.LazyWSGI object at 0x1185ce250&gt;, &#x27;is_shell&#x27;: None, &#x27;extension&#x27;: &#x27;html&#x27;, &#x27;cid&#x27;: &#x27;c259696075288&#x27;, &#x27;url&#x27;: &#x27;/editex/compose/list_nodes&#x27;, &#x27;_get_vars&#x27;: None, &#x27;ajax&#x27;: False, &#x27;is_https&#x27;: False, &#x27;is_sheduler&#x27;: None, &#x27;_post_vars&#x27;: None, &#x27;client&#x27;: &#x27;127.0.0.1&#x27;, &#x27;is_restful&#x27;: False, &#x27;env&#x27;: &lt;Storage {&#x27;SERVER_SOFTWARE&#x27;: &#x27;Rocket 1.2.6&#x27;, &#x27;script_name&#x27;: &#x27;&#x27;, &#x27;REQUEST_METHOD&#x27;: &#x27;GET&#x27;, &#x27;SERVER_PROTOCOL&#x27;: &#x27;HTTP/1.1&#x27;, &#x27;http_cache_control&#x27;: &#x27;max-age=0&#x27;, &#x27;web2py_path&#x27;: &#x27;/Users/admin/web2py&#x27;, &#x27;wsgi_url_scheme&#x27;: &#x27;http&#x27;, &#x27;REMOTE_PORT&#x27;: &#x27;50689&#x27;, &#x27;server_name&#x27;: &#x27;minion.local&#x27;, &#x27;applications_parent&#x27;: &#x27;/Users/admin/web2py&#x27;, &#x27;cmd_options&#x27;: &lt;Values at 0x10cf74248: {&#x27;verbose&#x27;: False, &#x27;ip&#x27;: &#x27;127.0.0.1&#x27;, &#x27;debuglevel&#x27;: 30, &#x27;with_scheduler&#x27;: False, &#x27;ips&#x27;: [&#x27;192.168.1.12&#x27;, &#x27;fe80::21f:5bff:fe38:218%en0&#x27;, &#x27;192.168.2.200&#x27;, &#x27;fe80::21f:f3ff:fe6e:386%fw0&#x27;], &#x27;shutdown_timeout&#x27;: 5, &#x27;taskbar&#x27;: False, &#x27;with_coverage&#x27;: False, &#x27;scheduler_groups&#x27;: None, &#x27;port&#x27;: 8000, &#x27;maxthreads&#x27;: None, &#x27;softcron&#x27;: False, &#x27;server_name&#x27;: &#x27;minion.local&#x27;, &#x27;bpython&#x27;: False, &#x27;nogui&#x27;: False, &#x27;pid_filename&#x27;: &#x27;httpserver.pid&#x27;, &#x27;print_errors&#x27;: False, &#x27;extcron&#x27;: False, &#x27;runcron&#x27;: False, &#x27;run_system_tests&#x27;: False, &#x27;test&#x27;: None, &#x27;folder&#x27;: &#x27;/Users/admin/web2py&#x27;, &#x27;config&#x27;: &#x27;&#x27;, &#x27;minthreads&#x27;: None, &#x27;shell&#x27;: None, &#x27;run&#x27;: &#x27;&#x27;, &#x27;log_filename&#x27;: &#x27;httpserver.log&#x27;, &#x27;profiler_dir&#x27;: None, &#x27;args&#x27;: [&#x27;&#x27;], &#x27;socket_timeout&#x27;: 5, &#x27;ssl_ca_certificate&#x27;: None, &#x27;scheduler&#x27;: None, &#x27;interfaces&#x27;: None, &#x27;ssl_private_key&#x27;: &#x27;&#x27;, &#x27;gae&#x27;: None, &#x27;password&#x27;: &#x27;&lt;ask&gt;&#x27;, &#x27;request_queue_size&#x27;: 5, &#x27;ssl_certificate&#x27;: &#x27;&#x27;, &#x27;cronjob&#x27;: False, &#x27;numthreads&#x27;: None, &#x27;quiet&#x27;: False, &#x27;import_models&#x27;: False, &#x27;timeout&#x27;: 10, &#x27;plain&#x27;: False, &#x27;nobanner&#x27;: False}&gt;, &#x27;wsgi_errors&#x27;: &lt;open file &#x27;&lt;stderr&gt;&#x27;, mode &#x27;w&#x27; at 0x10bed21e0&gt;, &#x27;request_method&#x27;: &#x27;GET&#x27;, &#x27;SERVER_PORT&#x27;: &#x27;8000&#x27;, &#x27;http_upgrade_insecure_requests&#x27;: &#x27;1&#x27;, &#x27;wsgi_multithread&#x27;: True, &#x27;web2py_version&#x27;: &#x27;2.12.3-stable+timestamp.2015.08.18.19.14.07&#x27;, &#x27;HTTP_HOST&#x27;: &#x27;127.0.0.1:8000&#x27;, &#x27;wsgi_multiprocess&#x27;: False, &#x27;HTTP_UPGRADE_INSECURE_REQUESTS&#x27;: &#x27;1&#x27;, &#x27;HTTP_CACHE_CONTROL&#x27;: &#x27;max-age=0&#x27;, &#x27;request_uri&#x27;: &#x27;/editex/compose/list_nodes&#x27;, &#x27;HTTP_ACCEPT&#x27;: &#x27;text/html,application/xhtml+xml,application/xml;q=0.9,image/webp,*/*;q=0.8&#x27;, &#x27;http_web2py_component_location&#x27;: &#x27;/editex/compose/list_nodes&#x27;, &#x27;wsgi.version&#x27;: (1, 0), &#x27;local_hosts&#x27;: [&#x27;minion.local&#x27;, &#x27;192.168.1.12&#x27;, &#x27;::ffff:127.0.0.1&#x27;, &#x27;::1&#x27;, &#x27;fe80::21f:5bff:fe38:218%en0&#x27;, &#x27;fe80::21f:f3ff:fe6e:386%fw0&#x27;, &#x27;192.168.2.200&#x27;, &#x27;127.0.0.1&#x27;], &#x27;wsgi.run_once&#x27;: False, &#x27;wsgi.errors&#x27;: &lt;open file &#x27;&lt;stderr&gt;&#x27;, mode &#x27;w&#x27; at 0x10bed21e0&gt;, &#x27;wsgi.multiprocess&#x27;: False, &#x27;HTTP_ACCEPT_LANGUAGE&#x27;: &#x27;en-US,en;q=0.8&#x27;, &#x27;wsgi_input&#x27;: &lt;socket._fileobject object at 0x1180c4450&gt;, &#x27;app_folders&#x27;: set([&#x27;/Users/admin/web2py/applications/editex/&#x27;, &#x27;/Users/admin/web2py/applications/admin/&#x27;, &#x27;/Users/admin/web2py/applications/prodigious/&#x27;, &#x27;/Users/admin/web2py/applications/welcome/&#x27;]), &#x27;http_connection&#x27;: &#x27;keep-alive&#x27;, &#x27;remote_port&#x27;: &#x27;50689&#x27;, &#x27;http_web2py_component_element&#x27;: &#x27;c259696075288&#x27;, &#x27;debugging&#x27;: True, &#x27;http_user_agent&#x27;: &#x27;Mozilla/5.0 (Macintosh; Intel Mac OS X 10_10_5) AppleWebKit/537.36 (KHTML, like Gecko) Chrome/48.0.2564.116 Safari/537.36&#x27;, &#x27;HTTP_COOKIE&#x27;: &#x27;ajs_anonymous_id=%22c5ce07da-16c3-4f3a-b4fd-0a458506c7ad%22; ajs_user_id=null; ajs_group_id=null; mp_c5357a0b115c737650036b7b22ee864f_mixpanel=%7B%22distinct_id%22%3A%20%221531d8f5c972af-0c0a2a82c-35677f0a-140000-1531d8f5c98239%22%2C%22%24initial_referrer%22%3A%20%22%24direct%22%2C%22%24initial_referring_domain%22%3A%20%22%24direct%22%7D; session_id_wider=127.0.0.1-8c9a3633-0820-4cab-a449-a3d0f8403fb4; session_id_styler=127.0.0.1-ee8c35d3-6dfc-45b7-b2f0-29a184475310; session_id_welcome=127.0.0.1-d3cca59c-140e-4dd5-a49a-57dba19a23c8; session_id_prodigious=127.0.0.1-b34e3ded-6950-4c91-83b3-cd66a19963f6; session_id_admin=127.0.0.1-e7346b06-1bca-48fb-bd86-64d3b87ecb37; session_id_editex=127.0.0.1-780aeb25-9f9c-4573-8f39-3add00357357&#x27;, &#x27;PATH_INFO&#x27;: &#x27;/editex/compose/list_nodes&#x27;, &#x27;server_protocol&#x27;: &#x27;HTTP/1.1&#x27;, &#x27;QUERY_STRING&#x27;: &#x27;&#x27;, &#x27;cmd_args&#x27;: [], &#x27;http_accept&#x27;: &#x27;text/html,application/xhtml+xml,application/xml;q=0.9,image/webp,*/*;q=0.8&#x27;, &#x27;HTTP_USER_AGENT&#x27;: &#x27;Mozilla/5.0 (Macintosh; Intel Mac OS X 10_10_5) AppleWebKit/537.36 (KHTML, like Gecko) Chrome/48.0.2564.116 Safari/537.36&#x27;, &#x27;HTTP_CONNECTION&#x27;: &#x27;keep-alive&#x27;, &#x27;SERVER_NAME&#x27;: &#x27;minion.local&#x27;, &#x27;remote_addr&#x27;: &#x27;127.0.0.1&#x27;, &#x27;is_jython&#x27;: False, &#x27;http_accept_language&#x27;: &#x27;en-US,en;q=0.8&#x27;, &#x27;wsgi_version&#x27;: (1, 0), &#x27;wsgi.url_scheme&#x27;: &#x27;http&#x27;, &#x27;is_source&#x27;: True, &#x27;server_port&#x27;: &#x27;8000&#x27;, &#x27;http_accept_encoding&#x27;: &#x27;gzip, deflate, sdch&#x27;, &#x27;http_cookie&#x27;: &#x27;ajs_anonymous_id=%22c5ce07da-16c3-4f3a-b4fd-0a458506c7ad%22; ajs_user_id=null; ajs_group_id=null; mp_c5357a0b115c737650036b7b22ee864f_mixpanel=%7B%22distinct_id%22%3A%20%221531d8f5c972af-0c0a2a82c-35677f0a-140000-1531d8f5c98239%22%2C%22%24initial_referrer%22%3A%20%22%24direct%22%2C%22%24initial_referring_domain%22%3A%20%22%24direct%22%7D; session_id_wider=127.0.0.1-8c9a3633-0820-4cab-a449-a3d0f8403fb4; session_id_styler=127.0.0.1-ee8c35d3-6dfc-45b7-b2f0-29a184475310; session_id_welcome=127.0.0.1-d3cca59c-140e-4dd5-a49a-57dba19a23c8; session_id_prodigious=127.0.0.1-b34e3ded-6950-4c91-83b3-cd66a19963f6; session_id_admin=127.0.0.1-e7346b06-1bca-48fb-bd86-64d3b87ecb37; session_id_editex=127.0.0.1-780aeb25-9f9c-4573-8f39-3add00357357&#x27;, &#x27;gluon_parent&#x27;: &#x27;/Users/admin/web2py&#x27;, &#x27;server_software&#x27;: &#x27;Rocket 1.2.6&#x27;, &#x27;wsgi.input&#x27;: &lt;socket._fileobject object at 0x1180c4450&gt;, &#x27;http_host&#x27;: &#x27;127.0.0.1:8000&#x27;, &#x27;path_info&#x27;: &#x27;/editex/compose/insert&#x27;, &#x27;wsgi.multithread&#x27;: True, &#x27;wsgi_file_wrapper&#x27;: &lt;class wsgiref.util.FileWrapper at 0x10cefc600&gt;, &#x27;is_pypy&#x27;: False, &#x27;SCRIPT_NAME&#x27;: &#x27;&#x27;, &#x27;REMOTE_ADDR&#x27;: &#x27;127.0.0.1&#x27;, &#x27;db_sessions&#x27;: set([]), &#x27;query_string&#x27;: &#x27;&#x27;, &#x27;wsgi_run_once&#x27;: False, &#x27;wsgi.file_wrapper&#x27;: &lt;class wsgiref.util.FileWrapper at 0x10cefc600&gt;, &#x27;HTTP_ACCEPT_ENCODING&#x27;: &#x27;gzip, deflate, sdch&#x27;}&gt;, &#x27;get_vars&#x27;: &lt;Storage {}&gt;, &#x27;folder&#x27;: &#x27;/Users/admin/web2py/applications/editex/&#x27;, &#x27;restful&#x27;: &lt;bound method ?.restful of &lt;Storage {...}&gt;&gt;, &#x27;post_vars&#x27;: &lt;Storage {}&gt;}&gt;&gt;</div></td></tr><tr><td style="font-weight:bold;vertical-align:top;">url</td><td style="vertical-align:top;">:</td><td><div>/editex/compose/list_nodes</div></td></tr><tr><td style="font-weight:bold;vertical-align:top;">utcnow</td><td style="vertical-align:top;">:</td><td><div>datetime.datetime(2016, 3, 10, 3, 28, 16, 280327)</div></td></tr><tr><td style="font-weight:bold;vertical-align:top;">vars</td><td style="vertical-align:top;">:</td><td><div><table></table></div></td></tr><tr><td style="font-weight:bold;vertical-align:top;">wsgi</td><td style="vertical-align:top;">:</td><td><div>&lt;gluon.main.LazyWSGI object at 0x1185ce250&gt;</div></td></tr></table></div>'
tRp58
sS'frames'
p59
(lp60
(dp61
S'file'
p62
S'/Users/admin/web2py/gluon/restricted.py'
p63
sS'dump'
p64
(dp65
S'environment'
p66
S"{'A': <class 'gluon.html.A'>, 'ANY_OF': <class 'gluon.validators.ANY_OF'>, 'ASSIGNJS': <function ASSIGNJS>, 'AppConfig': <function AppConfig>, 'Auth': <class 'gluon.tools.Auth'>, 'B': <class 'gluon.html.B'>, 'BEAUTIFY': <class 'gluon.html.BEAUTIFY'>, 'BODY': <class 'gluon.html.BODY'>, 'BR': <class 'gluon.html.BR'>, 'BUTTON': <class 'gluon.html.BUTTON'>, ...}"
p67
sS'ccode'
p68
S'<code object <module> at 0x117f41bb0, file "/Use...lications/editex/controllers/compose.py", line 1>'
p69
ssS'lnum'
p70
I227
sS'lines'
p71
(dp72
I224
S'            ccode = code'
p73
sI225
S'        else:'
p74
sI226
S'            ccode = compile2(code, layer)'
p75
sI227
S'        exec ccode in environment'
p76
sI228
S'    except HTTP:'
p77
sI229
S'        raise'
p78
sI230
S'    except RestrictedError:'
p79
sI231
S'        # do not encapsulate (obfuscate) the original RestrictedError'
p80
sI222
S'    try:'
p81
sI223
S'        if isinstance(code, types.CodeType):'
p82
ssS'call'
p83
S"(code='@auth.requires_login()\\ndef index():\\n    rows=db(...lient=id\\nresponse._vars=response._caller(insert)\\n', environment={'A': <class 'gluon.html.A'>, 'ANY_OF': <class 'gluon.validators.ANY_OF'>, 'ASSIGNJS': <function ASSIGNJS>, 'AppConfig': <function AppConfig>, 'Auth': <class 'gluon.tools.Auth'>, 'B': <class 'gluon.html.B'>, 'BEAUTIFY': <class 'gluon.html.BEAUTIFY'>, 'BODY': <class 'gluon.html.BODY'>, 'BR': <class 'gluon.html.BR'>, 'BUTTON': <class 'gluon.html.BUTTON'>, ...}, layer='/Users/admin/web2py/applications/editex/controllers/compose.py')"
p84
sS'func'
p85
S'restricted'
p86
sa(dp87
g62
S'/Users/admin/web2py/applications/editex/controllers/compose.py'
p88
sg64
(dp89
sg70
I175
sg71
(dp90
I165
S'    if len(request.args)>0:'
p91
sI166
S'        row = db(db.segment.id==request.args(0)).select().first()'
p92
sI167
S"    form=FORM(INPUT(_name='textarea'), INPUT(_type='submit'))"
p93
sI168
S'    return dict(form=form)"""'
p94
sI169
S''
sI170
S'def mcedit():'
p95
sI171
S'    form=SQLFORM.factory(db.segment)'
p96
sI172
S'    if form.process().accepted:'
p97
sI173
S'        id = db.client.insert(**db.client._filter_fields(form.vars))'
p98
sI174
S'        form.vars.client=id'
p99
ssg83
S'()'
p100
sg85
S'<module>'
p101
sa(dp102
g62
S'/Users/admin/web2py/gluon/globals.py'
p103
sg64
(dp104
S'self'
p105
S'undefined'
p106
sS'f'
S'<function insert>'
p107
ssg70
I412
sg71
(dp108
I416
S"        self.generic_patterns = ['*']"
p109
sI407
S"        self.flash = ''            # used by the default view layout"
p110
sI408
S'        self.meta = Storage()      # used by web2py_ajax.html'
p111
sI409
S'        self.menu = []             # used by the default view layout'
p112
sI410
S'        self.files = []            # used by web2py_ajax.html'
p113
sI411
S'        self._vars = None'
p114
sI412
S'        self._caller = lambda f: f()'
p115
sI413
S'        self._view_environment = None'
p116
sI414
S'        self._custom_commit = None'
p117
sI415
S'        self._custom_rollback = None'
p118
ssg83
S'(f=<function insert>)'
p119
sg85
S'<lambda>'
p120
sa(dp121
g62
S'/Users/admin/web2py/applications/editex/controllers/compose.py'
p122
sg64
(dp123
S'row.tier'
p124
g106
sS'row'
p125
S'None'
p126
ssg70
I135
sg71
(dp127
I130
S'def insert():'
p128
sI131
S'    print request.args(0)'
p129
sI132
S'    search_id = request.args(0) or session.cur_root'
p130
sI133
S'    row    =    db(db.segment.id==search_id).select().first()'
p131
sI134
S'    print row'
p132
sI135
S"    print 'double asterisk ',  10**(-row.tier)"
p133
sI136
S'    session.cur_tier    =    row.tier    +    1'
p134
sI137
S'    seession.cur_pos    =    row.pos    +    10**(-row.tier)'
p135
sI138
S'    form = SQLFORM(db.segments, fields=[\'body\'], formstyle=\'divs\',names={\'body\':""})'
p136
sI139
S'    return    dict(form=form)'
p137
ssg83
S'()'
p138
sg85
S'insert'
p139
sasS'pyver'
p140
S'Python 2.7.10: /usr/bin/python (prefix: /System/Library/Frameworks/Python.framework/Versions/2.7)'
p141
sS'session'
p142
g57
(S's\x10\x0b\x00\x00<div><table><tr><td style="font-weight:bold;vertical-align:top;">auth</td><td style="vertical-align:top;">:</td><td><div><table><tr><td style="font-weight:bold;vertical-align:top;">expiration</td><td style="vertical-align:top;">:</td><td><div>2592000</div></td></tr><tr><td style="font-weight:bold;vertical-align:top;">hmac_key</td><td style="vertical-align:top;">:</td><td><div>a985e7a3-8103-42b9-8621-bb399bd654a2</div></td></tr><tr><td style="font-weight:bold;vertical-align:top;">last_visit</td><td style="vertical-align:top;">:</td><td><div>datetime.datetime(2016, 3, 7, 13, 12, 34, 870614)</div></td></tr><tr><td style="font-weight:bold;vertical-align:top;">remember_me</td><td style="vertical-align:top;">:</td><td><div>True</div></td></tr><tr><td style="font-weight:bold;vertical-align:top;">user</td><td style="vertical-align:top;">:</td><td><div><table><tr><td style="font-weight:bold;vertical-align:top;">email</td><td style="vertical-align:top;">:</td><td><div>jeanpaulsc@gmail.com</div></td></tr><tr><td style="font-weight:bold;vertical-align:top;">first_name</td><td style="vertical-align:top;">:</td><td><div>Jean-Paul</div></td></tr><tr><td style="font-weight:bold;vertical-align:top;">id</td><td style="vertical-align:top;">:</td><td><div>1L</div></td></tr><tr><td style="font-weight:bold;vertical-align:top;">last_name</td><td style="vertical-align:top;">:</td><td><div>McCoy</div></td></tr><tr><td style="font-weight:bold;vertical-align:top;">registration_id</td><td style="vertical-align:top;">:</td><td><div></div></td></tr><tr><td style="font-weight:bold;vertical-align:top;">registration_key</td><td style="vertical-align:top;">:</td><td><div></div></td></tr><tr><td style="font-weight:bold;vertical-align:top;">reset_password_key</td><td style="vertical-align:top;">:</td><td><div></div></td></tr></table></div></td></tr><tr><td style="font-weight:bold;vertical-align:top;">user_groups</td><td style="vertical-align:top;">:</td><td><div><table><tr><td style="font-weight:bold;vertical-align:top;">1</td><td style="vertical-align:top;">:</td><td><div>user_1</div></td></tr><tr><td style="font-weight:bold;vertical-align:top;">2</td><td style="vertical-align:top;">:</td><td><div>pupils</div></td></tr></table></div></td></tr></table></div></td></tr><tr><td style="font-weight:bold;vertical-align:top;">cur_tier</td><td style="vertical-align:top;">:</td><td><div>0</div></td></tr><tr><td style="font-weight:bold;vertical-align:top;">flash</td><td style="vertical-align:top;">:</td><td><div>None</div></td></tr><tr><td style="font-weight:bold;vertical-align:top;">last_orderby</td><td style="vertical-align:top;">:</td><td><div>None</div></td></tr><tr><td style="font-weight:bold;vertical-align:top;">last_query</td><td style="vertical-align:top;">:</td><td><div>db.segment.id&gt;0</div></td></tr></table></div>'
tRp143
sS'etype'
p144
S"<type 'exceptions.AttributeError'>"
p145
sS'date'
p146
S'Wed Mar  9 19:28:16 2016'
p147
sS'response'
p148
g57
(S'sb\t\x00\x00<div><table><tr><td style="font-weight:bold;vertical-align:top;">body</td><td style="vertical-align:top;">:</td><td><div>&lt;cStringIO.StringO object at 0x117f293b0&gt;</div></td></tr><tr><td style="font-weight:bold;vertical-align:top;">cookies</td><td style="vertical-align:top;">:</td><td><div><table></table></div></td></tr><tr><td style="font-weight:bold;vertical-align:top;">delimiters</td><td style="vertical-align:top;">:</td><td><div><table><tr><td><div>{{</div></td></tr><tr><td><div>}}</div></td></tr></table></div></td></tr><tr><td style="font-weight:bold;vertical-align:top;">files</td><td style="vertical-align:top;">:</td><td><div><table></table></div></td></tr><tr><td style="font-weight:bold;vertical-align:top;">flash</td><td style="vertical-align:top;">:</td><td><div></div></td></tr><tr><td style="font-weight:bold;vertical-align:top;">form_label_separator</td><td style="vertical-align:top;">:</td><td><div>: </div></td></tr><tr><td style="font-weight:bold;vertical-align:top;">formstyle</td><td style="vertical-align:top;">:</td><td><div>table3cols</div></td></tr><tr><td style="font-weight:bold;vertical-align:top;">generic_patterns</td><td style="vertical-align:top;">:</td><td><div><table><tr><td><div>*</div></td></tr></table></div></td></tr><tr><td style="font-weight:bold;vertical-align:top;">headers</td><td style="vertical-align:top;">:</td><td><div><table><tr><td style="font-weight:bold;vertical-align:top;">X-Powered-By</td><td style="vertical-align:top;">:</td><td><div>web2py</div></td></tr></table></div></td></tr><tr><td style="font-weight:bold;vertical-align:top;">menu</td><td style="vertical-align:top;">:</td><td><div><table></table></div></td></tr><tr><td style="font-weight:bold;vertical-align:top;">meta</td><td style="vertical-align:top;">:</td><td><div><table></table></div></td></tr><tr><td style="font-weight:bold;vertical-align:top;">postprocessing</td><td style="vertical-align:top;">:</td><td><div><table></table></div></td></tr><tr><td style="font-weight:bold;vertical-align:top;">session_id</td><td style="vertical-align:top;">:</td><td><div>None</div></td></tr><tr><td style="font-weight:bold;vertical-align:top;">status</td><td style="vertical-align:top;">:</td><td><div>200</div></td></tr><tr><td style="font-weight:bold;vertical-align:top;">view</td><td style="vertical-align:top;">:</td><td><div>compose/insert.html</div></td></tr></table></div>'
tRp149
sS'locals'
p150
(dp151
S'search_id'
p152
S'None'
p153
sS'row'
p154
S'None'
p155
sssS'traceback'
p156
S'Traceback (most recent call last):\n  File "/Users/admin/web2py/gluon/restricted.py", line 227, in restricted\n    exec ccode in environment\n  File "/Users/admin/web2py/applications/editex/controllers/compose.py", line 175, in <module>\n  File "/Users/admin/web2py/gluon/globals.py", line 412, in <lambda>\n    self._caller = lambda f: f()\n  File "/Users/admin/web2py/applications/editex/controllers/compose.py", line 135, in insert\n    print \'double asterisk \',  10**(-row.tier)\nAttributeError: \'NoneType\' object has no attribute \'tier\'\n'
p157
s.